EXPORTS 
	??_R0?AU_Crt_new_delete@std@@@8 	 DATA
	??_R0?AV?$_Iosb@H@std@@@8 	 DATA
	??_R0?AV?$_Node_class@DV?$regex_traits@D@std@@@std@@@8 	 DATA
	??_R0?AV?$_Node_str@D@std@@@8 	 DATA
	??_R0?AV?$_Ref_count_obj2@VRNG@bctoolbox@@@std@@@8 	 DATA
	??_R0?AV?$_Ref_count_obj2@VVfsEM_AES256GCM_SHA256@bctoolbox@@@std@@@8 	 DATA
	??_R0?AV?$_Ref_count_obj2@VVfsEncryptionModuleDummy@bctoolbox@@@std@@@8 	 DATA
	??_R0?AV?$basic_ios@DU?$char_traits@D@std@@@std@@@8 	 DATA
	??_R0?AV?$basic_iostream@DU?$char_traits@D@std@@@std@@@8 	 DATA
	??_R0?AV?$basic_istream@DU?$char_traits@D@std@@@std@@@8 	 DATA
	??_R0?AV?$basic_ostream@DU?$char_traits@D@std@@@std@@@8 	 DATA
	??_R0?AV?$basic_ostringstream@DU?$char_traits@D@std@@V?$allocator@D@2@@std@@@8 	 DATA
	??_R0?AV?$basic_streambuf@DU?$char_traits@D@std@@@std@@@8 	 DATA
	??_R0?AV?$basic_stringbuf@DU?$char_traits@D@std@@V?$allocator@D@2@@std@@@8 	 DATA
	??_R0?AV?$basic_stringstream@DU?$char_traits@D@std@@V?$allocator@D@2@@std@@@8 	 DATA
	??_R0?AV?$collate@D@std@@@8 	 DATA
	??_R0?AVBctbxException@@@8 	 DATA
	??_R0?AVEvfsException@bctoolbox@@@8 	 DATA
	??_R0?AVVfsEM_AES256GCM_SHA256@bctoolbox@@@8 	 DATA
	??_R0?AVVfsEncryptionModule@bctoolbox@@@8 	 DATA
	??_R0?AVVfsEncryptionModuleDummy@bctoolbox@@@8 	 DATA
	??_R0?AV_Facet_base@std@@@8 	 DATA
	??_R0?AV_Node_assert@std@@@8 	 DATA
	??_R0?AV_Node_back@std@@@8 	 DATA
	??_R0?AV_Node_base@std@@@8 	 DATA
	??_R0?AV_Node_capture@std@@@8 	 DATA
	??_R0?AV_Node_end_group@std@@@8 	 DATA
	??_R0?AV_Node_end_rep@std@@@8 	 DATA
	??_R0?AV_Node_endif@std@@@8 	 DATA
	??_R0?AV_Node_if@std@@@8 	 DATA
	??_R0?AV_Node_rep@std@@@8 	 DATA
	??_R0?AV_Ref_count_base@std@@@8 	 DATA
	??_R0?AV_Root_node@std@@@8 	 DATA
	??_R0?AVbad_alloc@std@@@8 	 DATA
	??_R0?AVbad_array_new_length@std@@@8 	 DATA
	??_R0?AVbad_cast@std@@@8 	 DATA
	??_R0?AVexception@std@@@8 	 DATA
	??_R0?AVfacet@locale@std@@@8 	 DATA
	??_R0?AVios_base@std@@@8 	 DATA
	??_R0?AVout_of_range@std@@@8 	 DATA
	??_R0?AVregex_error@std@@@8 	 DATA
	?_Psave@?$_Facetptr@V?$collate@D@std@@@std@@2PEBVfacet@locale@2@EB 	 DATA
	?_Psave@?$_Facetptr@V?$ctype@D@std@@@std@@2PEBVfacet@locale@2@EB 	 DATA
	?bcEncryptedVfs@bctoolbox@@3Ubctbx_vfs_t@@A 	 DATA
	?pImplClass@RNG@bctoolbox@@0V?$unique_ptr@UImpl@RNG@bctoolbox@@U?$default_delete@UImpl@RNG@bctoolbox@@@std@@@std@@A 	 DATA
	?sThreadLocalInstance@LogTags@bctoolbox@@0V12@A 	 DATA
	?s_openCallback@VfsEncryption@bctoolbox@@0V?$function@$$A6AXAEAVVfsEncryption@bctoolbox@@@Z@std@@A 	 DATA
	bcStandardVfs 	 DATA
	??$?0AEAY04$$CBDH$0A@@?$pair@$$CBV?$basic_string@DU?$char_traits@D@std@@V?$allocator@D@2@@std@@I@std@@QEAA@AEAY04$$CBD$$QEAH@Z
	??$?0AEAY05$$CBDH$0A@@?$pair@$$CBV?$basic_string@DU?$char_traits@D@std@@V?$allocator@D@2@@std@@I@std@@QEAA@AEAY05$$CBD$$QEAH@Z
	??$?0AEAY06$$CBDH$0A@@?$pair@$$CBV?$basic_string@DU?$char_traits@D@std@@V?$allocator@D@2@@std@@I@std@@QEAA@AEAY06$$CBD$$QEAH@Z
	??$?0AEAY07$$CBDH$0A@@?$pair@$$CBV?$basic_string@DU?$char_traits@D@std@@V?$allocator@D@2@@std@@I@std@@QEAA@AEAY07$$CBD$$QEAH@Z
	??$?0V?$_Vector_const_iterator@V?$_Vector_val@U?$_Simple_types@E@std@@@std@@@std@@$0A@@?$vector@EV?$allocator@E@std@@@std@@QEAA@V?$_Vector_const_iterator@V?$_Vector_val@U?$_Simple_types@E@std@@@std@@@1@0AEBV?$allocator@E@1@@Z
	??$?6$$BY01D@BctbxException@@QEAAAEAV0@AEAY01$$CBD@Z
	??$?6$$BY01D@EvfsException@bctoolbox@@QEAAAEAV01@AEAY01$$CBD@Z
	??$?6$$BY09D@BctbxException@@QEAAAEAV0@AEAY09$$CBD@Z
	??$?6$$BY09D@EvfsException@bctoolbox@@QEAAAEAV01@AEAY09$$CBD@Z
	??$?6$$BY0BB@D@EvfsException@bctoolbox@@QEAAAEAV01@AEAY0BB@$$CBD@Z
	??$?6$$BY0BC@D@BctbxException@@QEAAAEAV0@AEAY0BC@$$CBD@Z
	??$?6$$BY0BC@D@EvfsException@bctoolbox@@QEAAAEAV01@AEAY0BC@$$CBD@Z
	??$?6$$BY0BD@D@EvfsException@bctoolbox@@QEAAAEAV01@AEAY0BD@$$CBD@Z
	??$?6$$BY0BE@D@EvfsException@bctoolbox@@QEAAAEAV01@AEAY0BE@$$CBD@Z
	??$?6$$BY0BF@D@EvfsException@bctoolbox@@QEAAAEAV01@AEAY0BF@$$CBD@Z
	??$?6$$BY0BG@D@EvfsException@bctoolbox@@QEAAAEAV01@AEAY0BG@$$CBD@Z
	??$?6$$BY0BL@D@EvfsException@bctoolbox@@QEAAAEAV01@AEAY0BL@$$CBD@Z
	??$?6$$BY0BO@D@EvfsException@bctoolbox@@QEAAAEAV01@AEAY0BO@$$CBD@Z
	??$?6$$BY0CA@D@EvfsException@bctoolbox@@QEAAAEAV01@AEAY0CA@$$CBD@Z
	??$?6$$BY0CB@D@EvfsException@bctoolbox@@QEAAAEAV01@AEAY0CB@$$CBD@Z
	??$?6$$BY0CF@D@EvfsException@bctoolbox@@QEAAAEAV01@AEAY0CF@$$CBD@Z
	??$?6$$BY0CH@D@EvfsException@bctoolbox@@QEAAAEAV01@AEAY0CH@$$CBD@Z
	??$?6$$BY0CI@D@EvfsException@bctoolbox@@QEAAAEAV01@AEAY0CI@$$CBD@Z
	??$?6$$BY0CJ@D@EvfsException@bctoolbox@@QEAAAEAV01@AEAY0CJ@$$CBD@Z
	??$?6$$BY0CK@D@EvfsException@bctoolbox@@QEAAAEAV01@AEAY0CK@$$CBD@Z
	??$?6$$BY0CL@D@EvfsException@bctoolbox@@QEAAAEAV01@AEAY0CL@$$CBD@Z
	??$?6$$BY0CN@D@EvfsException@bctoolbox@@QEAAAEAV01@AEAY0CN@$$CBD@Z
	??$?6$$BY0CP@D@EvfsException@bctoolbox@@QEAAAEAV01@AEAY0CP@$$CBD@Z
	??$?6$$BY0DA@D@BctbxException@@QEAAAEAV0@AEAY0DA@$$CBD@Z
	??$?6$$BY0DB@D@EvfsException@bctoolbox@@QEAAAEAV01@AEAY0DB@$$CBD@Z
	??$?6$$BY0DC@D@EvfsException@bctoolbox@@QEAAAEAV01@AEAY0DC@$$CBD@Z
	??$?6$$BY0DF@D@BctbxException@@QEAAAEAV0@AEAY0DF@$$CBD@Z
	??$?6$$BY0DJ@D@BctbxException@@QEAAAEAV0@AEAY0DJ@$$CBD@Z
	??$?6$$BY0DJ@D@EvfsException@bctoolbox@@QEAAAEAV01@AEAY0DJ@$$CBD@Z
	??$?6$$BY0DK@D@EvfsException@bctoolbox@@QEAAAEAV01@AEAY0DK@$$CBD@Z
	??$?6$$BY0DN@D@EvfsException@bctoolbox@@QEAAAEAV01@AEAY0DN@$$CBD@Z
	??$?6$$BY0DO@D@EvfsException@bctoolbox@@QEAAAEAV01@AEAY0DO@$$CBD@Z
	??$?6$$BY0ED@D@EvfsException@bctoolbox@@QEAAAEAV01@AEAY0ED@$$CBD@Z
	??$?6$$BY0EH@D@EvfsException@bctoolbox@@QEAAAEAV01@AEAY0EH@$$CBD@Z
	??$?6$$BY0EM@D@EvfsException@bctoolbox@@QEAAAEAV01@AEAY0EM@$$CBD@Z
	??$?6$$BY0EO@D@EvfsException@bctoolbox@@QEAAAEAV01@AEAY0EO@$$CBD@Z
	??$?6$$BY0FA@D@EvfsException@bctoolbox@@QEAAAEAV01@AEAY0FA@$$CBD@Z
	??$?6$$BY0FC@D@EvfsException@bctoolbox@@QEAAAEAV01@AEAY0FC@$$CBD@Z
	??$?6$$BY0FD@D@EvfsException@bctoolbox@@QEAAAEAV01@AEAY0FD@$$CBD@Z
	??$?6$$BY0FH@D@BctbxException@@QEAAAEAV0@AEAY0FH@$$CBD@Z
	??$?6$$BY0FK@D@EvfsException@bctoolbox@@QEAAAEAV01@AEAY0FK@$$CBD@Z
	??$?6$$BY0FN@D@EvfsException@bctoolbox@@QEAAAEAV01@AEAY0FN@$$CBD@Z
	??$?6$$BY0GI@D@EvfsException@bctoolbox@@QEAAAEAV01@AEAY0GI@$$CBD@Z
	??$?6$$BY0HD@D@EvfsException@bctoolbox@@QEAAAEAV01@AEAY0HD@$$CBD@Z
	??$?6$$BY0M@D@BctbxException@@QEAAAEAV0@AEAY0M@$$CBD@Z
	??$?6$$BY0M@D@EvfsException@bctoolbox@@QEAAAEAV01@AEAY0M@$$CBD@Z
	??$?6$$BY0N@D@EvfsException@bctoolbox@@QEAAAEAV01@AEAY0N@$$CBD@Z
	??$?6$$BY0O@D@EvfsException@bctoolbox@@QEAAAEAV01@AEAY0O@$$CBD@Z
	??$?6DU?$char_traits@D@std@@V?$allocator@D@1@@std@@YAAEAV?$basic_ostream@DU?$char_traits@D@std@@@0@AEAV10@AEBV?$basic_string@DU?$char_traits@D@std@@V?$allocator@D@2@@0@@Z
	??$?6G@EvfsException@bctoolbox@@QEAAAEAV01@AEBG@Z
	??$?6H@BctbxException@@QEAAAEAV0@AEBH@Z
	??$?6H@EvfsException@bctoolbox@@QEAAAEAV01@AEBH@Z
	??$?6J@EvfsException@bctoolbox@@QEAAAEAV01@AEBJ@Z
	??$?6PEBD@BctbxException@@QEAAAEAV0@AEBQEBD@Z
	??$?6U?$char_traits@D@std@@@std@@YAAEAV?$basic_ostream@DU?$char_traits@D@std@@@0@AEAV10@PEBD@Z
	??$?6V?$basic_string@DU?$char_traits@D@std@@V?$allocator@D@2@@std@@@EvfsException@bctoolbox@@QEAAAEAV01@AEBV?$basic_string@DU?$char_traits@D@std@@V?$allocator@D@2@@std@@@Z
	??$?6_K@BctbxException@@QEAAAEAV0@AEB_K@Z
	??$?6_K@EvfsException@bctoolbox@@QEAAAEAV01@AEB_K@Z
	??$?8VVfsEncryptionModule@bctoolbox@@@std@@YA_NAEBV?$shared_ptr@VVfsEncryptionModule@bctoolbox@@@0@$$T@Z
	??$?9$$A6AXAEAVVfsEncryption@bctoolbox@@@Z@std@@YA_NAEBV?$function@$$A6AXAEAVVfsEncryption@bctoolbox@@@Z@0@$$T@Z
	??$?9DU?$char_traits@D@std@@V?$allocator@D@1@@std@@YA_NAEBV?$basic_string@DU?$char_traits@D@std@@V?$allocator@D@2@@0@0@Z
	??$?9VVfsEncryptionModule@bctoolbox@@@std@@YA_NAEBV?$shared_ptr@VVfsEncryptionModule@bctoolbox@@@0@$$T@Z
	??$?HDU?$char_traits@D@std@@V?$allocator@D@1@@std@@YA?AV?$basic_string@DU?$char_traits@D@std@@V?$allocator@D@2@@0@$$QEAV10@AEBV10@@Z
	??$?MDU?$char_traits@D@std@@V?$allocator@D@1@@std@@YA_NAEBV?$basic_string@DU?$char_traits@D@std@@V?$allocator@D@2@@0@0@Z
	??$AEADDecrypt@UAES256GCM128@bctoolbox@@@bctoolbox@@YA_NAEBV?$vector@EV?$allocator@E@std@@@std@@0000AEAV12@@Z
	??$AEADEncrypt@UAES256GCM128@bctoolbox@@@bctoolbox@@YA?AV?$vector@EV?$allocator@E@std@@@std@@AEBV12@000AEAV12@@Z
	??$HKDF@USHA256@bctoolbox@@@bctoolbox@@YA?AV?$vector@EV?$allocator@E@std@@@std@@AEBV12@00_K@Z
	??$HKDF@USHA256@bctoolbox@@@bctoolbox@@YA?AV?$vector@EV?$allocator@E@std@@@std@@AEBV12@0AEBV?$basic_string@DU?$char_traits@D@std@@V?$allocator@D@2@@2@_K@Z
	??$HKDF@USHA384@bctoolbox@@@bctoolbox@@YA?AV?$vector@EV?$allocator@E@std@@@std@@AEBV12@00_K@Z
	??$HKDF@USHA384@bctoolbox@@@bctoolbox@@YA?AV?$vector@EV?$allocator@E@std@@@std@@AEBV12@0AEBV?$basic_string@DU?$char_traits@D@std@@V?$allocator@D@2@@2@_K@Z
	??$HKDF@USHA512@bctoolbox@@@bctoolbox@@YA?AV?$vector@EV?$allocator@E@std@@@std@@AEBV12@00_K@Z
	??$HKDF@USHA512@bctoolbox@@@bctoolbox@@YA?AV?$vector@EV?$allocator@E@std@@@std@@AEBV12@0AEBV?$basic_string@DU?$char_traits@D@std@@V?$allocator@D@2@@2@_K@Z
	??$HMAC@USHA1@bctoolbox@@@bctoolbox@@YA?AV?$vector@EV?$allocator@E@std@@@std@@AEBV12@0@Z
	??$HMAC@USHA256@bctoolbox@@@bctoolbox@@YA?AV?$vector@EV?$allocator@E@std@@@std@@AEBV12@0@Z
	??$HMAC@USHA384@bctoolbox@@@bctoolbox@@YA?AV?$vector@EV?$allocator@E@std@@@std@@AEBV12@0@Z
	??$HMAC@USHA512@bctoolbox@@@bctoolbox@@YA?AV?$vector@EV?$allocator@E@std@@@std@@AEBV12@0@Z
	??$_Allocate_manually_vector_aligned@U_Default_allocate_traits@std@@@std@@YAPEAX_K@Z
	??$_Cmp_chrange@PEBDPEBDU?$_Cmp_collate@V?$regex_traits@D@std@@@std@@@std@@YAPEBDPEBD000U?$_Cmp_collate@V?$regex_traits@D@std@@@0@@Z
	??$_Cmp_chrange@PEBDPEBDU?$_Cmp_cs@V?$regex_traits@D@std@@@std@@@std@@YAPEBDPEBD000U?$_Cmp_cs@V?$regex_traits@D@std@@@0@@Z
	??$_Cmp_chrange@PEBDPEBDU?$_Cmp_icase@V?$regex_traits@D@std@@@std@@@std@@YAPEBDPEBD000U?$_Cmp_icase@V?$regex_traits@D@std@@@0@@Z
	??$_Compare@PEBDPEBDV?$regex_traits@D@std@@@std@@YAPEBDPEBD000AEBV?$regex_traits@D@0@W4syntax_option_type@regex_constants@0@@Z
	??$_Copy_backward_memmove@PEAEPEAE@std@@YAPEAEPEAE00@Z
	??$_Copy_memmove@PEADPEAD@std@@YAPEADPEAD00@Z
	??$_Copy_memmove@PEADPEAE@std@@YAPEAEPEAD0PEAE@Z
	??$_Copy_memmove@PEAEPEAE@std@@YAPEAEPEAE00@Z
	??$_Copy_memmove@PEAIPEAI@std@@YAPEAIPEAI00@Z
	??$_Copy_memmove@PEAPEAUTagValue@LogTags@bctoolbox@@PEAPEAU123@@std@@YAPEAPEAUTagValue@LogTags@bctoolbox@@PEAPEAU123@00@Z
	??$_Copy_memmove@PEAU_Grp_t@?$_Tgt_state_t@PEBD@std@@PEAU123@@std@@YAPEAU_Grp_t@?$_Tgt_state_t@PEBD@0@PEAU120@00@Z
	??$_Copy_memmove@PEAU_Loop_vals_t@std@@PEAU12@@std@@YAPEAU_Loop_vals_t@0@PEAU10@00@Z
	??$_Copy_memmove@PEBDPEAD@std@@YAPEADPEBD0PEAD@Z
	??$_Copy_memmove@PEBEPEAE@std@@YAPEAEPEBE0PEAE@Z
	??$_Destroy_range@V?$allocator@V?$basic_string@DU?$char_traits@D@std@@V?$allocator@D@2@@std@@@std@@@std@@YAXPEAV?$basic_string@DU?$char_traits@D@std@@V?$allocator@D@2@@0@QEAV10@AEAV?$allocator@V?$basic_string@DU?$char_traits@D@std@@V?$allocator@D@2@@std@@@0@@Z
	??$_Emplace_reallocate@AEBUStackFrame@@@?$vector@UStackFrame@@V?$allocator@UStackFrame@@@std@@@std@@QEAAPEAUStackFrame@@QEAU2@AEBU2@@Z
	??$_Emplace_reallocate@E@?$vector@EV?$allocator@E@std@@@std@@QEAAPEAEQEAE$$QEAE@Z
	??$_Emplace_reallocate@H@?$vector@EV?$allocator@E@std@@@std@@QEAAPEAEQEAE$$QEAH@Z
	??$_Emplace_reallocate@V?$basic_string@DU?$char_traits@D@std@@V?$allocator@D@2@@std@@@?$vector@V?$basic_string@DU?$char_traits@D@std@@V?$allocator@D@2@@std@@V?$allocator@V?$basic_string@DU?$char_traits@D@std@@V?$allocator@D@2@@std@@@2@@std@@QEAAPEAV?$basic_string@DU?$char_traits@D@std@@V?$allocator@D@2@@1@QEAV21@$$QEAV21@@Z
	??$_Erase_tree@V?$allocator@U?$_Tree_node@U?$pair@$$CBV?$basic_string@DU?$char_traits@D@std@@V?$allocator@D@2@@std@@PEAX@std@@PEAX@std@@@std@@@?$_Tree_val@U?$_Tree_simple_types@U?$pair@$$CBV?$basic_string@DU?$char_traits@D@std@@V?$allocator@D@2@@std@@PEAX@std@@@std@@@std@@QEAAXAEAV?$allocator@U?$_Tree_node@U?$pair@$$CBV?$basic_string@DU?$char_traits@D@std@@V?$allocator@D@2@@std@@PEAX@std@@PEAX@std@@@1@PEAU?$_Tree_node@U?$pair@$$CBV?$basic_string@DU?$char_traits@D@std@@V?$allocator@D@2@@std@@PEAX@std@@PEAX@1@@Z
	??$_Erase_tree@V?$allocator@U?$_Tree_node@U?$pair@$$CBV?$basic_string@DU?$char_traits@D@std@@V?$allocator@D@2@@std@@V12@@std@@PEAX@std@@@std@@@?$_Tree_val@U?$_Tree_simple_types@U?$pair@$$CBV?$basic_string@DU?$char_traits@D@std@@V?$allocator@D@2@@std@@V12@@std@@@std@@@std@@QEAAXAEAV?$allocator@U?$_Tree_node@U?$pair@$$CBV?$basic_string@DU?$char_traits@D@std@@V?$allocator@D@2@@std@@V12@@std@@PEAX@std@@@1@PEAU?$_Tree_node@U?$pair@$$CBV?$basic_string@DU?$char_traits@D@std@@V?$allocator@D@2@@std@@V12@@std@@PEAX@1@@Z
	??$_Erase_tree@V?$allocator@U?$_Tree_node@U?$pair@$$CBV?$basic_string@DU?$char_traits@D@std@@V?$allocator@D@2@@std@@V?$stack@UTagValue@LogTags@bctoolbox@@V?$deque@UTagValue@LogTags@bctoolbox@@V?$allocator@UTagValue@LogTags@bctoolbox@@@std@@@std@@@2@@std@@PEAX@std@@@std@@@?$_Tree_val@U?$_Tree_simple_types@U?$pair@$$CBV?$basic_string@DU?$char_traits@D@std@@V?$allocator@D@2@@std@@V?$stack@UTagValue@LogTags@bctoolbox@@V?$deque@UTagValue@LogTags@bctoolbox@@V?$allocator@UTagValue@LogTags@bctoolbox@@@std@@@std@@@2@@std@@@std@@@std@@QEAAXAEAV?$allocator@U?$_Tree_node@U?$pair@$$CBV?$basic_string@DU?$char_traits@D@std@@V?$allocator@D@2@@std@@V?$stack@UTagValue@LogTags@bctoolbox@@V?$deque@UTagValue@LogTags@bctoolbox@@V?$allocator@UTagValue@LogTags@bctoolbox@@@std@@@std@@@2@@std@@PEAX@std@@@1@PEAU?$_Tree_node@U?$pair@$$CBV?$basic_string@DU?$char_traits@D@std@@V?$allocator@D@2@@std@@V?$stack@UTagValue@LogTags@bctoolbox@@V?$deque@UTagValue@LogTags@bctoolbox@@V?$allocator@UTagValue@LogTags@bctoolbox@@@std@@@std@@@2@@std@@PEAX@1@@Z
	??$_Erase_tree@V?$allocator@U?$_Tree_node@U?$pair@$$CB_KPEAX@std@@PEAX@std@@@std@@@?$_Tree_val@U?$_Tree_simple_types@U?$pair@$$CB_KPEAX@std@@@std@@@std@@QEAAXAEAV?$allocator@U?$_Tree_node@U?$pair@$$CB_KPEAX@std@@PEAX@std@@@1@PEAU?$_Tree_node@U?$pair@$$CB_KPEAX@std@@PEAX@1@@Z
	??$_Fill_memset@PEAEE@std@@YAXPEAEE_K@Z
	??$_Fill_zero_memset@PEAI@std@@YAXPEAI_K@Z
	??$_Find_last@V?$basic_string@DU?$char_traits@D@std@@V?$allocator@D@2@@std@@@?$_Hash@V?$_Umap_traits@V?$basic_string@DU?$char_traits@D@std@@V?$allocator@D@2@@std@@IV?$_Uhash_compare@V?$basic_string@DU?$char_traits@D@std@@V?$allocator@D@2@@std@@U?$hash@V?$basic_string@DU?$char_traits@D@std@@V?$allocator@D@2@@std@@@2@U?$equal_to@V?$basic_string@DU?$char_traits@D@std@@V?$allocator@D@2@@std@@@2@@2@V?$allocator@U?$pair@$$CBV?$basic_string@DU?$char_traits@D@std@@V?$allocator@D@2@@std@@I@std@@@2@$0A@@std@@@std@@IEBA?AU?$_Hash_find_last_result@PEAU?$_List_node@U?$pair@$$CBV?$basic_string@DU?$char_traits@D@std@@V?$allocator@D@2@@std@@I@std@@PEAX@std@@@1@AEBV?$basic_string@DU?$char_traits@D@std@@V?$allocator@D@2@@1@_K@Z
	??$_Free_non_head@V?$allocator@U?$_List_node@V?$basic_string@DU?$char_traits@D@std@@V?$allocator@D@2@@std@@PEAX@std@@@std@@@?$_List_node@V?$basic_string@DU?$char_traits@D@std@@V?$allocator@D@2@@std@@PEAX@std@@SAXAEAV?$allocator@U?$_List_node@V?$basic_string@DU?$char_traits@D@std@@V?$allocator@D@2@@std@@PEAX@std@@@1@PEAU01@@Z
	??$_Freenode@V?$allocator@U?$_Tree_node@U?$pair@$$CBV?$basic_string@DU?$char_traits@D@std@@V?$allocator@D@2@@std@@PEAX@std@@PEAX@std@@@std@@@?$_Tree_node@U?$pair@$$CBV?$basic_string@DU?$char_traits@D@std@@V?$allocator@D@2@@std@@PEAX@std@@PEAX@std@@SAXAEAV?$allocator@U?$_Tree_node@U?$pair@$$CBV?$basic_string@DU?$char_traits@D@std@@V?$allocator@D@2@@std@@PEAX@std@@PEAX@std@@@1@PEAU01@@Z
	??$_Getvals@_W@?$time_get@DV?$istreambuf_iterator@DU?$char_traits@D@std@@@std@@@std@@IEAAX_WAEBV_Locinfo@1@@Z
	??$_Getvals@_W@?$time_get@_WV?$istreambuf_iterator@_WU?$char_traits@_W@std@@@std@@@std@@IEAAX_WAEBV_Locinfo@1@@Z
	??$_Hash_array_representation@D@std@@YA_KQEBD_K@Z
	??$_Insert_range@PEAE@?$vector@EV?$allocator@E@std@@@std@@AEAAXV?$_Vector_const_iterator@V?$_Vector_val@U?$_Simple_types@E@std@@@std@@@1@PEAE1Uforward_iterator_tag@1@@Z
	??$_Insert_range@PEBE@?$vector@EV?$allocator@E@std@@@std@@AEAAXV?$_Vector_const_iterator@V?$_Vector_val@U?$_Simple_types@E@std@@@std@@@1@PEBE1Uforward_iterator_tag@1@@Z
	??$_Insert_string@DU?$char_traits@D@std@@_K@std@@YAAEAV?$basic_ostream@DU?$char_traits@D@std@@@0@AEAV10@QEBD_K@Z
	??$_Integral_to_string@DH@std@@YA?AV?$basic_string@DU?$char_traits@D@std@@V?$allocator@D@2@@0@H@Z
	??$_Is_all_bits_zero@I@std@@YA_NAEBI@Z
	??$_Lookup_coll@PEBDD@std@@YAPEBDPEBD0PEBU?$_Sequence@D@0@@Z
	??$_Lookup_equiv@DV?$regex_traits@D@std@@@std@@YA_NEPEBU?$_Sequence@D@0@AEBV?$regex_traits@D@0@@Z
	??$_Lookup_range@D@std@@YA_NIPEBU?$_Buf@D@0@@Z
	??$_Maklocstr@D@std@@YAPEADPEBDPEADAEBU_Cvtvec@@@Z
	??$_Match@V?$allocator@V?$sub_match@PEBD@std@@@std@@@?$_Matcher@PEBDDV?$regex_traits@D@std@@PEBD@std@@QEAA_NPEAV?$match_results@PEBDV?$allocator@V?$sub_match@PEBD@std@@@std@@@1@_N@Z
	??$_Memcmp_ranges@PEBEPEBE@std@@YAHPEBE00@Z
	??$_Move_unchecked@PEAEPEAE@std@@YAPEAEPEAE00@Z
	??$_Reallocate_grow_by@V<lambda_55b0f89b53a0342680e40398a0d39887>@@_K_KPEBD_K@?$basic_string@DU?$char_traits@D@std@@V?$allocator@D@2@@std@@AEAAAEAV01@_KV<lambda_55b0f89b53a0342680e40398a0d39887>@@_K2PEBD2@Z
	??$_Reallocate_grow_by@V<lambda_65e615be2a453ca0576c979606f46740>@@PEBD_K@?$basic_string@DU?$char_traits@D@std@@V?$allocator@D@2@@std@@AEAAAEAV01@_KV<lambda_65e615be2a453ca0576c979606f46740>@@PEBD_K@Z
	??$_Reallocate_grow_by@V<lambda_e1befb086ad3257e3f042a63030725f7>@@_KD@?$basic_string@DU?$char_traits@D@std@@V?$allocator@D@2@@std@@AEAAAEAV01@_KV<lambda_e1befb086ad3257e3f042a63030725f7>@@_KD@Z
	??$_Reallocate_grow_by@V<lambda_f3a66ab6a0570788f31503db83886f49>@@_KPEBD_K@?$basic_string@DU?$char_traits@D@std@@V?$allocator@D@2@@std@@AEAAAEAV01@_KV<lambda_f3a66ab6a0570788f31503db83886f49>@@_KPEBD2@Z
	??$_Regex_match1@PEBDV?$allocator@V?$sub_match@PEBD@std@@@std@@DV?$regex_traits@D@2@PEBD@std@@YA_NPEBD0PEAV?$match_results@PEBDV?$allocator@V?$sub_match@PEBD@std@@@std@@@0@AEBV?$basic_regex@DV?$regex_traits@D@std@@@0@W4match_flag_type@regex_constants@0@_N@Z
	??$_Resize_reallocate@I@?$vector@IV?$allocator@I@std@@@std@@AEAAX_KAEBI@Z
	??$_Resize_reallocate@U_Value_init_tag@std@@@?$vector@EV?$allocator@E@std@@@std@@AEAAX_KAEBU_Value_init_tag@1@@Z
	??$_Resize_reallocate@U_Value_init_tag@std@@@?$vector@U_Grp_t@?$_Tgt_state_t@PEBD@std@@V?$allocator@U_Grp_t@?$_Tgt_state_t@PEBD@std@@@3@@std@@AEAAX_KAEBU_Value_init_tag@1@@Z
	??$_Resize_reallocate@U_Value_init_tag@std@@@?$vector@U_Loop_vals_t@std@@V?$allocator@U_Loop_vals_t@std@@@2@@std@@AEAAX_KAEBU_Value_init_tag@1@@Z
	??$_Resize_reallocate@U_Value_init_tag@std@@@?$vector@V?$sub_match@PEBD@std@@V?$allocator@V?$sub_match@PEBD@std@@@2@@std@@AEAAX_KAEBU_Value_init_tag@1@@Z
	??$_Traits_find@U?$char_traits@D@std@@@std@@YA_KQEBD_K101@Z
	??$_Try_emplace@AEBV?$basic_string@DU?$char_traits@D@std@@V?$allocator@D@2@@std@@$$V@?$map@V?$basic_string@DU?$char_traits@D@std@@V?$allocator@D@2@@std@@V?$stack@UTagValue@LogTags@bctoolbox@@V?$deque@UTagValue@LogTags@bctoolbox@@V?$allocator@UTagValue@LogTags@bctoolbox@@@std@@@std@@@2@U?$less@V?$basic_string@DU?$char_traits@D@std@@V?$allocator@D@2@@std@@@2@V?$allocator@U?$pair@$$CBV?$basic_string@DU?$char_traits@D@std@@V?$allocator@D@2@@std@@V?$stack@UTagValue@LogTags@bctoolbox@@V?$deque@UTagValue@LogTags@bctoolbox@@V?$allocator@UTagValue@LogTags@bctoolbox@@@std@@@std@@@2@@std@@@2@@std@@AEAA?AU?$pair@PEAU?$_Tree_node@U?$pair@$$CBV?$basic_string@DU?$char_traits@D@std@@V?$allocator@D@2@@std@@V?$stack@UTagValue@LogTags@bctoolbox@@V?$deque@UTagValue@LogTags@bctoolbox@@V?$allocator@UTagValue@LogTags@bctoolbox@@@std@@@std@@@2@@std@@PEAX@std@@_N@1@AEBV?$basic_string@DU?$char_traits@D@std@@V?$allocator@D@2@@1@@Z
	??$_UIntegral_to_buff@DI@std@@YAPEADPEADI@Z
	??$_Uninitialized_move@PEAUStackFrame@@V?$allocator@UStackFrame@@@std@@@std@@YAPEAUStackFrame@@QEAU1@0PEAU1@AEAV?$allocator@UStackFrame@@@0@@Z
	??$_Uninitialized_move@PEAV?$basic_string@DU?$char_traits@D@std@@V?$allocator@D@2@@std@@V?$allocator@V?$basic_string@DU?$char_traits@D@std@@V?$allocator@D@2@@std@@@2@@std@@YAPEAV?$basic_string@DU?$char_traits@D@std@@V?$allocator@D@2@@0@QEAV10@0PEAV10@AEAV?$allocator@V?$basic_string@DU?$char_traits@D@std@@V?$allocator@D@2@@std@@@0@@Z
	??$_Uninitialized_value_construct_n_unchecked1@PEAPEAUTagValue@LogTags@bctoolbox@@_K@std@@YAPEAPEAUTagValue@LogTags@bctoolbox@@PEAPEAU123@_K@Z
	??$_Zero_range@PEAE@std@@YAPEAEQEAE0@Z
	??$_Zero_range@PEAPEAUTagValue@LogTags@bctoolbox@@@std@@YAPEAPEAUTagValue@LogTags@bctoolbox@@QEAPEAU123@0@Z
	??$assign@PEAE$0A@@?$vector@EV?$allocator@E@std@@@std@@QEAAXPEAE0@Z
	??$bctbx_iterator_delete_type@V?$multimap@V?$basic_string@DU?$char_traits@D@std@@V?$allocator@D@2@@std@@PEAXU?$less@V?$basic_string@DU?$char_traits@D@std@@V?$allocator@D@2@@std@@@2@V?$allocator@U?$pair@$$CBV?$basic_string@DU?$char_traits@D@std@@V?$allocator@D@2@@std@@PEAX@std@@@2@@std@@@@YAXPEAU_bctbx_iterator_t@@@Z
	??$bctbx_iterator_delete_type@V?$multimap@_KPEAXU?$less@_K@std@@V?$allocator@U?$pair@$$CB_KPEAX@std@@@2@@std@@@@YAXPEAU_bctbx_iterator_t@@@Z
	??$bctbx_iterator_equals_type@V?$multimap@V?$basic_string@DU?$char_traits@D@std@@V?$allocator@D@2@@std@@PEAXU?$less@V?$basic_string@DU?$char_traits@D@std@@V?$allocator@D@2@@std@@@2@V?$allocator@U?$pair@$$CBV?$basic_string@DU?$char_traits@D@std@@V?$allocator@D@2@@std@@PEAX@std@@@2@@std@@@@YAEPEBU_bctbx_iterator_t@@0@Z
	??$bctbx_iterator_equals_type@V?$multimap@_KPEAXU?$less@_K@std@@V?$allocator@U?$pair@$$CB_KPEAX@std@@@2@@std@@@@YAEPEBU_bctbx_iterator_t@@0@Z
	??$bctbx_iterator_get_next_type@V?$multimap@V?$basic_string@DU?$char_traits@D@std@@V?$allocator@D@2@@std@@PEAXU?$less@V?$basic_string@DU?$char_traits@D@std@@V?$allocator@D@2@@std@@@2@V?$allocator@U?$pair@$$CBV?$basic_string@DU?$char_traits@D@std@@V?$allocator@D@2@@std@@PEAX@std@@@2@@std@@@@YAPEAU_bctbx_iterator_t@@PEAU0@@Z
	??$bctbx_iterator_get_next_type@V?$multimap@_KPEAXU?$less@_K@std@@V?$allocator@U?$pair@$$CB_KPEAX@std@@@2@@std@@@@YAPEAU_bctbx_iterator_t@@PEAU0@@Z
	??$bctbx_iterator_get_pair_type@V?$multimap@V?$basic_string@DU?$char_traits@D@std@@V?$allocator@D@2@@std@@PEAXU?$less@V?$basic_string@DU?$char_traits@D@std@@V?$allocator@D@2@@std@@@2@V?$allocator@U?$pair@$$CBV?$basic_string@DU?$char_traits@D@std@@V?$allocator@D@2@@std@@PEAX@std@@@2@@std@@@@YAPEAU_bctbx_pair_t@@PEBU_bctbx_iterator_t@@@Z
	??$bctbx_iterator_get_pair_type@V?$multimap@_KPEAXU?$less@_K@std@@V?$allocator@U?$pair@$$CB_KPEAX@std@@@2@@std@@@@YAPEAU_bctbx_pair_t@@PEBU_bctbx_iterator_t@@@Z
	??$bctbx_map_begin_type@V?$multimap@V?$basic_string@DU?$char_traits@D@std@@V?$allocator@D@2@@std@@PEAXU?$less@V?$basic_string@DU?$char_traits@D@std@@V?$allocator@D@2@@std@@@2@V?$allocator@U?$pair@$$CBV?$basic_string@DU?$char_traits@D@std@@V?$allocator@D@2@@std@@PEAX@std@@@2@@std@@@@YAPEAU_bctbx_iterator_t@@PEBU_bctbx_map_t@@@Z
	??$bctbx_map_begin_type@V?$multimap@_KPEAXU?$less@_K@std@@V?$allocator@U?$pair@$$CB_KPEAX@std@@@2@@std@@@@YAPEAU_bctbx_iterator_t@@PEBU_bctbx_map_t@@@Z
	??$bctbx_map_end_type@V?$multimap@V?$basic_string@DU?$char_traits@D@std@@V?$allocator@D@2@@std@@PEAXU?$less@V?$basic_string@DU?$char_traits@D@std@@V?$allocator@D@2@@std@@@2@V?$allocator@U?$pair@$$CBV?$basic_string@DU?$char_traits@D@std@@V?$allocator@D@2@@std@@PEAX@std@@@2@@std@@@@YAPEAU_bctbx_iterator_t@@PEBU_bctbx_map_t@@@Z
	??$bctbx_map_end_type@V?$multimap@_KPEAXU?$less@_K@std@@V?$allocator@U?$pair@$$CB_KPEAX@std@@@2@@std@@@@YAPEAU_bctbx_iterator_t@@PEBU_bctbx_map_t@@@Z
	??$bctbx_map_erase_type@V?$multimap@V?$basic_string@DU?$char_traits@D@std@@V?$allocator@D@2@@std@@PEAXU?$less@V?$basic_string@DU?$char_traits@D@std@@V?$allocator@D@2@@std@@@2@V?$allocator@U?$pair@$$CBV?$basic_string@DU?$char_traits@D@std@@V?$allocator@D@2@@std@@PEAX@std@@@2@@std@@@@YAPEAU_bctbx_iterator_t@@PEAU_bctbx_map_t@@PEAU0@@Z
	??$bctbx_map_erase_type@V?$multimap@_KPEAXU?$less@_K@std@@V?$allocator@U?$pair@$$CB_KPEAX@std@@@2@@std@@@@YAPEAU_bctbx_iterator_t@@PEAU_bctbx_map_t@@PEAU0@@Z
	??$bctbx_map_find_key_type@V?$multimap@V?$basic_string@DU?$char_traits@D@std@@V?$allocator@D@2@@std@@PEAXU?$less@V?$basic_string@DU?$char_traits@D@std@@V?$allocator@D@2@@std@@@2@V?$allocator@U?$pair@$$CBV?$basic_string@DU?$char_traits@D@std@@V?$allocator@D@2@@std@@PEAX@std@@@2@@std@@@@YAPEAU_bctbx_iterator_t@@PEBU_bctbx_map_t@@V?$basic_string@DU?$char_traits@D@std@@V?$allocator@D@2@@std@@@Z
	??$bctbx_map_find_key_type@V?$multimap@_KPEAXU?$less@_K@std@@V?$allocator@U?$pair@$$CB_KPEAX@std@@@2@@std@@@@YAPEAU_bctbx_iterator_t@@PEBU_bctbx_map_t@@_K@Z
	??$bctbx_map_insert_base@V?$multimap@V?$basic_string@DU?$char_traits@D@std@@V?$allocator@D@2@@std@@PEAXU?$less@V?$basic_string@DU?$char_traits@D@std@@V?$allocator@D@2@@std@@@2@V?$allocator@U?$pair@$$CBV?$basic_string@DU?$char_traits@D@std@@V?$allocator@D@2@@std@@PEAX@std@@@2@@std@@@@YAPEAU_bctbx_iterator_t@@PEAU_bctbx_map_t@@PEBU_bctbx_pair_t@@E@Z
	??$bctbx_map_insert_base@V?$multimap@_KPEAXU?$less@_K@std@@V?$allocator@U?$pair@$$CB_KPEAX@std@@@2@@std@@@@YAPEAU_bctbx_iterator_t@@PEAU_bctbx_map_t@@PEBU_bctbx_pair_t@@E@Z
	??$bctbx_map_size_type@V?$multimap@V?$basic_string@DU?$char_traits@D@std@@V?$allocator@D@2@@std@@PEAXU?$less@V?$basic_string@DU?$char_traits@D@std@@V?$allocator@D@2@@std@@@2@V?$allocator@U?$pair@$$CBV?$basic_string@DU?$char_traits@D@std@@V?$allocator@D@2@@std@@PEAX@std@@@2@@std@@@@YA_KPEBU_bctbx_map_t@@@Z
	??$bctbx_map_size_type@V?$multimap@_KPEAXU?$less@_K@std@@V?$allocator@U?$pair@$$CB_KPEAX@std@@@2@@std@@@@YA_KPEBU_bctbx_map_t@@@Z
	??$bctbx_mmap_delete@V?$multimap@V?$basic_string@DU?$char_traits@D@std@@V?$allocator@D@2@@std@@PEAXU?$less@V?$basic_string@DU?$char_traits@D@std@@V?$allocator@D@2@@std@@@2@V?$allocator@U?$pair@$$CBV?$basic_string@DU?$char_traits@D@std@@V?$allocator@D@2@@std@@PEAX@std@@@2@@std@@@@YAXPEAU_bctbx_map_t@@@Z
	??$bctbx_mmap_delete@V?$multimap@_KPEAXU?$less@_K@std@@V?$allocator@U?$pair@$$CB_KPEAX@std@@@2@@std@@@@YAXPEAU_bctbx_map_t@@@Z
	??$bctbx_mmap_new@V?$multimap@V?$basic_string@DU?$char_traits@D@std@@V?$allocator@D@2@@std@@PEAXU?$less@V?$basic_string@DU?$char_traits@D@std@@V?$allocator@D@2@@std@@@2@V?$allocator@U?$pair@$$CBV?$basic_string@DU?$char_traits@D@std@@V?$allocator@D@2@@std@@PEAX@std@@@2@@std@@@@YAPEAU_bctbx_map_t@@XZ
	??$bctbx_mmap_new@V?$multimap@_KPEAXU?$less@_K@std@@V?$allocator@U?$pair@$$CB_KPEAX@std@@@2@@std@@@@YAPEAU_bctbx_map_t@@XZ
	??$bctbx_pair_delete_type@U?$pair@$$CBV?$basic_string@DU?$char_traits@D@std@@V?$allocator@D@2@@std@@PEAX@std@@@@YAXPEAU_bctbx_pair_t@@@Z
	??$bctbx_pair_delete_type@U?$pair@$$CB_KPEAX@std@@@@YAXPEAU_bctbx_pair_t@@@Z
	??$bctbx_pair_get_first@V?$multimap@V?$basic_string@DU?$char_traits@D@std@@V?$allocator@D@2@@std@@PEAXU?$less@V?$basic_string@DU?$char_traits@D@std@@V?$allocator@D@2@@std@@@2@V?$allocator@U?$pair@$$CBV?$basic_string@DU?$char_traits@D@std@@V?$allocator@D@2@@std@@PEAX@std@@@2@@std@@@@YAAEBV?$basic_string@DU?$char_traits@D@std@@V?$allocator@D@2@@std@@PEBU?$pair@$$CBV?$basic_string@DU?$char_traits@D@std@@V?$allocator@D@2@@std@@PEAX@1@@Z
	??$bctbx_pair_get_first@V?$multimap@_KPEAXU?$less@_K@std@@V?$allocator@U?$pair@$$CB_KPEAX@std@@@2@@std@@@@YAAEB_KPEBU?$pair@$$CB_KPEAX@std@@@Z
	??$bctbx_pair_get_second_type@U?$pair@$$CBV?$basic_string@DU?$char_traits@D@std@@V?$allocator@D@2@@std@@PEAX@std@@@@YAPEAXPEBU_bctbx_pair_t@@@Z
	??$bctbx_pair_get_second_type@U?$pair@$$CB_KPEAX@std@@@@YAPEAXPEBU_bctbx_pair_t@@@Z
	??$bctbx_pair_new@V?$multimap@V?$basic_string@DU?$char_traits@D@std@@V?$allocator@D@2@@std@@PEAXU?$less@V?$basic_string@DU?$char_traits@D@std@@V?$allocator@D@2@@std@@@2@V?$allocator@U?$pair@$$CBV?$basic_string@DU?$char_traits@D@std@@V?$allocator@D@2@@std@@PEAX@std@@@2@@std@@@@YAPEAU?$pair@$$CBV?$basic_string@DU?$char_traits@D@std@@V?$allocator@D@2@@std@@PEAX@std@@V?$basic_string@DU?$char_traits@D@std@@V?$allocator@D@2@@1@PEAX@Z
	??$bctbx_pair_new@V?$multimap@_KPEAXU?$less@_K@std@@V?$allocator@U?$pair@$$CB_KPEAX@std@@@2@@std@@@@YAPEAU?$pair@$$CB_KPEAX@std@@_KPEAX@Z
	??$destroy@U?$pair@$$CBV?$basic_string@DU?$char_traits@D@std@@V?$allocator@D@2@@std@@PEAX@std@@@?$_Default_allocator_traits@V?$allocator@U?$_Tree_node@U?$pair@$$CBV?$basic_string@DU?$char_traits@D@std@@V?$allocator@D@2@@std@@PEAX@std@@PEAX@std@@@std@@@std@@SAXAEAV?$allocator@U?$_Tree_node@U?$pair@$$CBV?$basic_string@DU?$char_traits@D@std@@V?$allocator@D@2@@std@@PEAX@std@@PEAX@std@@@1@QEAU?$pair@$$CBV?$basic_string@DU?$char_traits@D@std@@V?$allocator@D@2@@std@@PEAX@1@@Z
	??$endl@DU?$char_traits@D@std@@@std@@YAAEAV?$basic_ostream@DU?$char_traits@D@std@@@0@AEAV10@@Z
	??$fill@PEAV?$_List_unchecked_iterator@V?$_List_val@U?$_List_simple_types@U?$pair@$$CBV?$basic_string@DU?$char_traits@D@std@@V?$allocator@D@2@@std@@I@std@@@std@@@std@@@std@@V12@@std@@YAXQEAV?$_List_unchecked_iterator@V?$_List_val@U?$_List_simple_types@U?$pair@$$CBV?$basic_string@DU?$char_traits@D@std@@V?$allocator@D@2@@std@@I@std@@@std@@@std@@@0@0AEBV10@@Z
	??$insert@PEBU?$pair@$$CBV?$basic_string@DU?$char_traits@D@std@@V?$allocator@D@2@@std@@I@std@@@?$_Hash@V?$_Umap_traits@V?$basic_string@DU?$char_traits@D@std@@V?$allocator@D@2@@std@@IV?$_Uhash_compare@V?$basic_string@DU?$char_traits@D@std@@V?$allocator@D@2@@std@@U?$hash@V?$basic_string@DU?$char_traits@D@std@@V?$allocator@D@2@@std@@@2@U?$equal_to@V?$basic_string@DU?$char_traits@D@std@@V?$allocator@D@2@@std@@@2@@2@V?$allocator@U?$pair@$$CBV?$basic_string@DU?$char_traits@D@std@@V?$allocator@D@2@@std@@I@std@@@2@$0A@@std@@@std@@QEAAXPEBU?$pair@$$CBV?$basic_string@DU?$char_traits@D@std@@V?$allocator@D@2@@std@@I@1@0@Z
	??$lookup_classname@PEBD@?$_Regex_traits@D@std@@QEBAFPEBD0_N@Z
	??$make_shared@VRNG@bctoolbox@@$$V@std@@YA?AV?$shared_ptr@VRNG@bctoolbox@@@0@XZ
	??$make_unique@V_Node_assert@std@@W4_Node_type@2@$0A@@std@@YA?AV?$unique_ptr@V_Node_assert@std@@U?$default_delete@V_Node_assert@std@@@2@@0@$$QEAW4_Node_type@0@@Z
	??$regex_match@DV?$allocator@V?$sub_match@PEBD@std@@@std@@V?$regex_traits@D@2@@std@@YA_NPEBDAEAV?$match_results@PEBDV?$allocator@V?$sub_match@PEBD@std@@@std@@@0@AEBV?$basic_regex@DV?$regex_traits@D@std@@@0@W4match_flag_type@regex_constants@0@@Z
	??$transform@V?$_Vector_iterator@V?$_Vector_val@U?$_Simple_types@E@std@@@std@@@std@@V?$_Vector_const_iterator@V?$_Vector_val@U?$_Simple_types@E@std@@@std@@@2@V12@U?$bit_xor@E@2@@std@@YA?AV?$_Vector_iterator@V?$_Vector_val@U?$_Simple_types@E@std@@@std@@@0@V10@0V?$_Vector_const_iterator@V?$_Vector_val@U?$_Simple_types@E@std@@@std@@@0@V10@U?$bit_xor@E@0@@Z
	??$transform_primary@PEAD@?$_Regex_traits@D@std@@QEBA?AV?$basic_string@DU?$char_traits@D@std@@V?$allocator@D@2@@1@PEAD0@Z
	??$transform_primary@PEBD@?$_Regex_traits@D@std@@QEBA?AV?$basic_string@DU?$char_traits@D@std@@V?$allocator@D@2@@1@PEBD0@Z
	??$transform_primary@V?$_String_iterator@V?$_String_val@U?$_Simple_types@D@std@@@std@@@std@@@?$_Regex_traits@D@std@@QEBA?AV?$basic_string@DU?$char_traits@D@std@@V?$allocator@D@2@@1@V?$_String_iterator@V?$_String_val@U?$_Simple_types@D@std@@@std@@@1@0@Z
	??$uninitialized_copy@PEAPEAUTagValue@LogTags@bctoolbox@@PEAPEAU123@@std@@YAPEAPEAUTagValue@LogTags@bctoolbox@@QEAPEAU123@0PEAPEAU123@@Z
	??$uninitialized_fill@PEAV?$_List_unchecked_iterator@V?$_List_val@U?$_List_simple_types@U?$pair@$$CBV?$basic_string@DU?$char_traits@D@std@@V?$allocator@D@2@@std@@I@std@@@std@@@std@@@std@@V12@@std@@YAXQEAV?$_List_unchecked_iterator@V?$_List_val@U?$_List_simple_types@U?$pair@$$CBV?$basic_string@DU?$char_traits@D@std@@V?$allocator@D@2@@std@@I@std@@@std@@@std@@@0@0AEBV10@@Z
	??$use_facet@V?$collate@D@std@@@std@@YAAEBV?$collate@D@0@AEBVlocale@0@@Z
	??$use_facet@V?$ctype@D@std@@@std@@YAAEBV?$ctype@D@0@AEBVlocale@0@@Z
	??0?$_Builder@PEBDDV?$regex_traits@D@std@@@std@@QEAA@AEBV?$regex_traits@D@1@W4syntax_option_type@regex_constants@1@@Z
	??0?$_Matcher@PEBDDV?$regex_traits@D@std@@PEBD@std@@QEAA@PEBD0AEBV?$regex_traits@D@1@PEAV_Root_node@1@IW4syntax_option_type@regex_constants@1@W4match_flag_type@51@@Z
	??0?$_Parser@PEBDDV?$regex_traits@D@std@@@std@@QEAA@AEBV?$regex_traits@D@1@PEBD1W4syntax_option_type@regex_constants@1@@Z
	??0?$basic_ostringstream@DU?$char_traits@D@std@@V?$allocator@D@2@@std@@QEAA@XZ
	??0?$basic_regex@DV?$regex_traits@D@std@@@std@@QEAA@PEBDW4syntax_option_type@regex_constants@1@@Z
	??0?$basic_string@DU?$char_traits@D@std@@V?$allocator@D@2@@std@@QEAA@AEBV01@@Z
	??0?$basic_string@DU?$char_traits@D@std@@V?$allocator@D@2@@std@@QEAA@QEBD@Z
	??0?$basic_string@DU?$char_traits@D@std@@V?$allocator@D@2@@std@@QEAA@_KD@Z
	??0?$unordered_map@V?$basic_string@DU?$char_traits@D@std@@V?$allocator@D@2@@std@@IU?$hash@V?$basic_string@DU?$char_traits@D@std@@V?$allocator@D@2@@std@@@2@U?$equal_to@V?$basic_string@DU?$char_traits@D@std@@V?$allocator@D@2@@std@@@2@V?$allocator@U?$pair@$$CBV?$basic_string@DU?$char_traits@D@std@@V?$allocator@D@2@@std@@I@std@@@2@@std@@QEAA@V?$initializer_list@U?$pair@$$CBV?$basic_string@DU?$char_traits@D@std@@V?$allocator@D@2@@std@@I@std@@@1@@Z
	??0?$vector@EV?$allocator@E@std@@@std@@QEAA@AEBV01@@Z
	??0?$vector@EV?$allocator@E@std@@@std@@QEAA@_KAEBV?$allocator@E@1@@Z
	??0BctbxException@@QEAA@AEBV0@@Z
	??0BctbxException@@QEAA@AEBV?$basic_string@DU?$char_traits@D@std@@V?$allocator@D@2@@std@@@Z
	??0EvfsException@bctoolbox@@QEAA@AEBV01@@Z
	??0EvfsException@bctoolbox@@QEAA@XZ
	??0Impl@RNG@bctoolbox@@QEAA@XZ
	??0RNG@bctoolbox@@QEAA@XZ
	??0VfsEM_AES256GCM_SHA256@bctoolbox@@QEAA@AEBV?$vector@EV?$allocator@E@std@@@std@@@Z
	??0VfsEM_AES256GCM_SHA256@bctoolbox@@QEAA@XZ
	??0VfsEncryption@bctoolbox@@QEAA@PEAUbctbx_vfs_file_t@@AEBV?$basic_string@DU?$char_traits@D@std@@V?$allocator@D@2@@std@@HH@Z
	??0VfsEncryptionModuleDummy@bctoolbox@@QEAA@AEBV?$vector@EV?$allocator@E@std@@@std@@@Z
	??0VfsEncryptionModuleDummy@bctoolbox@@QEAA@XZ
	??0bad_alloc@std@@QEAA@AEBV01@@Z
	??0bad_array_new_length@std@@QEAA@AEBV01@@Z
	??0bad_array_new_length@std@@QEAA@XZ
	??0bad_cast@std@@QEAA@AEBV01@@Z
	??0bad_cast@std@@QEAA@XZ
	??0exception@std@@QEAA@AEBV01@@Z
	??0pumpstream@@QEAA@PEBDW4BctbxLogLevel@@@Z
	??1?$_Alloc_construct_ptr@V?$allocator@U?$_List_node@U?$pair@$$CBV?$basic_string@DU?$char_traits@D@std@@V?$allocator@D@2@@std@@I@std@@PEAX@std@@@std@@@std@@QEAA@XZ
	??1?$_Alloc_construct_ptr@V?$allocator@U?$_List_node@V?$basic_string@DU?$char_traits@D@std@@V?$allocator@D@2@@std@@PEAX@std@@@std@@@std@@QEAA@XZ
	??1?$_Alloc_construct_ptr@V?$allocator@U?$_Tree_node@U?$pair@$$CBV?$basic_string@DU?$char_traits@D@std@@V?$allocator@D@2@@std@@PEAX@std@@PEAX@std@@@std@@@std@@QEAA@XZ
	??1?$_Alloc_construct_ptr@V?$allocator@U?$_Tree_node@U?$pair@$$CBV?$basic_string@DU?$char_traits@D@std@@V?$allocator@D@2@@std@@V12@@std@@PEAX@std@@@std@@@std@@QEAA@XZ
	??1?$_Alloc_construct_ptr@V?$allocator@U?$_Tree_node@U?$pair@$$CBV?$basic_string@DU?$char_traits@D@std@@V?$allocator@D@2@@std@@V?$stack@UTagValue@LogTags@bctoolbox@@V?$deque@UTagValue@LogTags@bctoolbox@@V?$allocator@UTagValue@LogTags@bctoolbox@@@std@@@std@@@2@@std@@PEAX@std@@@std@@@std@@QEAA@XZ
	??1?$_Alloc_construct_ptr@V?$allocator@U?$_Tree_node@U?$pair@$$CB_KPEAX@std@@PEAX@std@@@std@@@std@@QEAA@XZ
	??1?$_Bt_state_t@PEBD@std@@QEAA@XZ
	??1?$_Buf@D@std@@QEAA@XZ
	??1?$_Func_class@XAEAVVfsEncryption@bctoolbox@@@std@@QEAA@XZ
	??1?$_Hash@V?$_Umap_traits@V?$basic_string@DU?$char_traits@D@std@@V?$allocator@D@2@@std@@IV?$_Uhash_compare@V?$basic_string@DU?$char_traits@D@std@@V?$allocator@D@2@@std@@U?$hash@V?$basic_string@DU?$char_traits@D@std@@V?$allocator@D@2@@std@@@2@U?$equal_to@V?$basic_string@DU?$char_traits@D@std@@V?$allocator@D@2@@std@@@2@@2@V?$allocator@U?$pair@$$CBV?$basic_string@DU?$char_traits@D@std@@V?$allocator@D@2@@std@@I@std@@@2@$0A@@std@@@std@@QEAA@XZ
	??1?$_Hash_vec@V?$allocator@V?$_List_unchecked_iterator@V?$_List_val@U?$_List_simple_types@U?$pair@$$CBV?$basic_string@DU?$char_traits@D@std@@V?$allocator@D@2@@std@@I@std@@@std@@@std@@@std@@@std@@@std@@QEAA@XZ
	??1?$_List_node_emplace_op2@V?$allocator@U?$_List_node@U?$pair@$$CBV?$basic_string@DU?$char_traits@D@std@@V?$allocator@D@2@@std@@I@std@@PEAX@std@@@std@@@std@@QEAA@XZ
	??1?$_List_node_emplace_op2@V?$allocator@U?$_List_node@V?$basic_string@DU?$char_traits@D@std@@V?$allocator@D@2@@std@@PEAX@std@@@std@@@std@@QEAA@XZ
	??1?$_Matcher@PEBDDV?$regex_traits@D@std@@PEBD@std@@QEAA@XZ
	??1?$_Parser@PEBDDV?$regex_traits@D@std@@@std@@QEAA@XZ
	??1?$_Ref_count_obj2@VRNG@bctoolbox@@@std@@UEAA@XZ
	??1?$_Ref_count_obj2@VVfsEM_AES256GCM_SHA256@bctoolbox@@@std@@UEAA@XZ
	??1?$_Ref_count_obj2@VVfsEncryptionModuleDummy@bctoolbox@@@std@@UEAA@XZ
	??1?$_Regex_traits@D@std@@QEAA@XZ
	??1?$_Tgt_state_t@PEBD@std@@QEAA@XZ
	??1?$_Tidy_guard@V?$_Builder@PEBDDV?$regex_traits@D@std@@@std@@@std@@QEAA@XZ
	??1?$_Tidy_guard@V?$vector@DV?$allocator@D@std@@@std@@@std@@QEAA@XZ
	??1?$_Tidy_guard@V?$vector@EV?$allocator@E@std@@@std@@@std@@QEAA@XZ
	??1?$_Tidy_guard@V?$vector@IV?$allocator@I@std@@@std@@@std@@QEAA@XZ
	??1?$_Tidy_guard@V?$vector@U_Grp_t@?$_Tgt_state_t@PEBD@std@@V?$allocator@U_Grp_t@?$_Tgt_state_t@PEBD@std@@@3@@std@@@std@@QEAA@XZ
	??1?$_Tree@V?$_Tmap_traits@V?$basic_string@DU?$char_traits@D@std@@V?$allocator@D@2@@std@@PEAXU?$less@V?$basic_string@DU?$char_traits@D@std@@V?$allocator@D@2@@std@@@2@V?$allocator@U?$pair@$$CBV?$basic_string@DU?$char_traits@D@std@@V?$allocator@D@2@@std@@PEAX@std@@@2@$00@std@@@std@@QEAA@XZ
	??1?$_Tree@V?$_Tmap_traits@V?$basic_string@DU?$char_traits@D@std@@V?$allocator@D@2@@std@@V12@U?$less@V?$basic_string@DU?$char_traits@D@std@@V?$allocator@D@2@@std@@@2@V?$allocator@U?$pair@$$CBV?$basic_string@DU?$char_traits@D@std@@V?$allocator@D@2@@std@@V12@@std@@@2@$0A@@std@@@std@@QEAA@XZ
	??1?$_Tree@V?$_Tmap_traits@V?$basic_string@DU?$char_traits@D@std@@V?$allocator@D@2@@std@@V?$stack@UTagValue@LogTags@bctoolbox@@V?$deque@UTagValue@LogTags@bctoolbox@@V?$allocator@UTagValue@LogTags@bctoolbox@@@std@@@std@@@2@U?$less@V?$basic_string@DU?$char_traits@D@std@@V?$allocator@D@2@@std@@@2@V?$allocator@U?$pair@$$CBV?$basic_string@DU?$char_traits@D@std@@V?$allocator@D@2@@std@@V?$stack@UTagValue@LogTags@bctoolbox@@V?$deque@UTagValue@LogTags@bctoolbox@@V?$allocator@UTagValue@LogTags@bctoolbox@@@std@@@std@@@2@@std@@@2@$0A@@std@@@std@@QEAA@XZ
	??1?$_Tree@V?$_Tmap_traits@_KPEAXU?$less@_K@std@@V?$allocator@U?$pair@$$CB_KPEAX@std@@@2@$00@std@@@std@@QEAA@XZ
	??1?$_Tree_temp_node@V?$allocator@U?$_Tree_node@U?$pair@$$CBV?$basic_string@DU?$char_traits@D@std@@V?$allocator@D@2@@std@@PEAX@std@@PEAX@std@@@std@@@std@@QEAA@XZ
	??1?$_Tree_temp_node@V?$allocator@U?$_Tree_node@U?$pair@$$CBV?$basic_string@DU?$char_traits@D@std@@V?$allocator@D@2@@std@@V12@@std@@PEAX@std@@@std@@@std@@QEAA@XZ
	??1?$_Tree_temp_node@V?$allocator@U?$_Tree_node@U?$pair@$$CBV?$basic_string@DU?$char_traits@D@std@@V?$allocator@D@2@@std@@V?$stack@UTagValue@LogTags@bctoolbox@@V?$deque@UTagValue@LogTags@bctoolbox@@V?$allocator@UTagValue@LogTags@bctoolbox@@@std@@@std@@@2@@std@@PEAX@std@@@std@@@std@@QEAA@XZ
	??1?$_Tree_temp_node@V?$allocator@U?$_Tree_node@U?$pair@$$CB_KPEAX@std@@PEAX@std@@@std@@@std@@QEAA@XZ
	??1?$_Tree_temp_node_alloc@V?$allocator@U?$_Tree_node@U?$pair@$$CBV?$basic_string@DU?$char_traits@D@std@@V?$allocator@D@2@@std@@PEAX@std@@PEAX@std@@@std@@@std@@QEAA@XZ
	??1?$_Tree_temp_node_alloc@V?$allocator@U?$_Tree_node@U?$pair@$$CBV?$basic_string@DU?$char_traits@D@std@@V?$allocator@D@2@@std@@V12@@std@@PEAX@std@@@std@@@std@@QEAA@XZ
	??1?$_Tree_temp_node_alloc@V?$allocator@U?$_Tree_node@U?$pair@$$CBV?$basic_string@DU?$char_traits@D@std@@V?$allocator@D@2@@std@@V?$stack@UTagValue@LogTags@bctoolbox@@V?$deque@UTagValue@LogTags@bctoolbox@@V?$allocator@UTagValue@LogTags@bctoolbox@@@std@@@std@@@2@@std@@PEAX@std@@@std@@@std@@QEAA@XZ
	??1?$_Tree_temp_node_alloc@V?$allocator@U?$_Tree_node@U?$pair@$$CB_KPEAX@std@@PEAX@std@@@std@@@std@@QEAA@XZ
	??1?$_Uninitialized_backout_al@V?$allocator@UStackFrame@@@std@@@std@@QEAA@XZ
	??1?$_Uninitialized_backout_al@V?$allocator@V?$basic_string@DU?$char_traits@D@std@@V?$allocator@D@2@@std@@@std@@@std@@QEAA@XZ
	??1?$_Vb_val@V?$allocator@_N@std@@@std@@QEAA@XZ
	??1?$basic_ostringstream@DU?$char_traits@D@std@@V?$allocator@D@2@@std@@UEAA@XZ
	??1?$basic_regex@DV?$regex_traits@D@std@@@std@@QEAA@XZ
	??1?$basic_string@DU?$char_traits@D@std@@V?$allocator@D@2@@std@@QEAA@XZ
	??1?$basic_stringbuf@DU?$char_traits@D@std@@V?$allocator@D@2@@std@@UEAA@XZ
	??1?$basic_stringstream@DU?$char_traits@D@std@@V?$allocator@D@2@@std@@UEAA@XZ
	??1?$deque@UTagValue@LogTags@bctoolbox@@V?$allocator@UTagValue@LogTags@bctoolbox@@@std@@@std@@QEAA@XZ
	??1?$function@$$A6AXAEAVVfsEncryption@bctoolbox@@@Z@std@@QEAA@XZ
	??1?$list@U?$pair@$$CBV?$basic_string@DU?$char_traits@D@std@@V?$allocator@D@2@@std@@I@std@@V?$allocator@U?$pair@$$CBV?$basic_string@DU?$char_traits@D@std@@V?$allocator@D@2@@std@@I@std@@@2@@std@@QEAA@XZ
	??1?$list@V?$basic_string@DU?$char_traits@D@std@@V?$allocator@D@2@@std@@V?$allocator@V?$basic_string@DU?$char_traits@D@std@@V?$allocator@D@2@@std@@@2@@std@@QEAA@XZ
	??1?$map@V?$basic_string@DU?$char_traits@D@std@@V?$allocator@D@2@@std@@V12@U?$less@V?$basic_string@DU?$char_traits@D@std@@V?$allocator@D@2@@std@@@2@V?$allocator@U?$pair@$$CBV?$basic_string@DU?$char_traits@D@std@@V?$allocator@D@2@@std@@V12@@std@@@2@@std@@QEAA@XZ
	??1?$map@V?$basic_string@DU?$char_traits@D@std@@V?$allocator@D@2@@std@@V?$stack@UTagValue@LogTags@bctoolbox@@V?$deque@UTagValue@LogTags@bctoolbox@@V?$allocator@UTagValue@LogTags@bctoolbox@@@std@@@std@@@2@U?$less@V?$basic_string@DU?$char_traits@D@std@@V?$allocator@D@2@@std@@@2@V?$allocator@U?$pair@$$CBV?$basic_string@DU?$char_traits@D@std@@V?$allocator@D@2@@std@@V?$stack@UTagValue@LogTags@bctoolbox@@V?$deque@UTagValue@LogTags@bctoolbox@@V?$allocator@UTagValue@LogTags@bctoolbox@@@std@@@std@@@2@@std@@@2@@std@@QEAA@XZ
	??1?$match_results@PEBDV?$allocator@V?$sub_match@PEBD@std@@@std@@@std@@QEAA@XZ
	??1?$pair@$$CBV?$basic_string@DU?$char_traits@D@std@@V?$allocator@D@2@@std@@I@std@@QEAA@XZ
	??1?$pair@$$CBV?$basic_string@DU?$char_traits@D@std@@V?$allocator@D@2@@std@@V12@@std@@QEAA@XZ
	??1?$pair@$$CBV?$basic_string@DU?$char_traits@D@std@@V?$allocator@D@2@@std@@V?$stack@UTagValue@LogTags@bctoolbox@@V?$deque@UTagValue@LogTags@bctoolbox@@V?$allocator@UTagValue@LogTags@bctoolbox@@@std@@@std@@@2@@std@@QEAA@XZ
	??1?$regex_traits@D@std@@QEAA@XZ
	??1?$shared_ptr@VRNG@bctoolbox@@@std@@QEAA@XZ
	??1?$shared_ptr@VVfsEM_AES256GCM_SHA256@bctoolbox@@@std@@QEAA@XZ
	??1?$shared_ptr@VVfsEncryptionModule@bctoolbox@@@std@@QEAA@XZ
	??1?$shared_ptr@VVfsEncryptionModuleDummy@bctoolbox@@@std@@QEAA@XZ
	??1?$stack@UTagValue@LogTags@bctoolbox@@V?$deque@UTagValue@LogTags@bctoolbox@@V?$allocator@UTagValue@LogTags@bctoolbox@@@std@@@std@@@std@@QEAA@XZ
	??1?$unique_ptr@UImpl@RNG@bctoolbox@@U?$default_delete@UImpl@RNG@bctoolbox@@@std@@@std@@QEAA@XZ
	??1?$unique_ptr@V_Facet_base@std@@U?$default_delete@V_Facet_base@std@@@2@@std@@QEAA@XZ
	??1?$unique_ptr@V_Node_assert@std@@U?$default_delete@V_Node_assert@std@@@2@@std@@QEAA@XZ
	??1?$vector@DV?$allocator@D@std@@@std@@QEAA@XZ
	??1?$vector@EV?$allocator@E@std@@@std@@QEAA@XZ
	??1?$vector@IV?$allocator@I@std@@@std@@QEAA@XZ
	??1?$vector@UStackFrame@@V?$allocator@UStackFrame@@@std@@@std@@QEAA@XZ
	??1?$vector@U_Grp_t@?$_Tgt_state_t@PEBD@std@@V?$allocator@U_Grp_t@?$_Tgt_state_t@PEBD@std@@@3@@std@@QEAA@XZ
	??1?$vector@U_Loop_vals_t@std@@V?$allocator@U_Loop_vals_t@std@@@2@@std@@QEAA@XZ
	??1?$vector@V?$basic_string@DU?$char_traits@D@std@@V?$allocator@D@2@@std@@V?$allocator@V?$basic_string@DU?$char_traits@D@std@@V?$allocator@D@2@@std@@@2@@std@@QEAA@XZ
	??1?$vector@V?$sub_match@PEBD@std@@V?$allocator@V?$sub_match@PEBD@std@@@2@@std@@QEAA@XZ
	??1?$vector@_NV?$allocator@_N@std@@@std@@QEAA@XZ
	??1BctbxException@@UEAA@XZ
	??1EvfsException@bctoolbox@@UEAA@XZ
	??1RNG@bctoolbox@@QEAA@XZ
	??1StackFrame@@QEAA@XZ
	??1TagValue@LogTags@bctoolbox@@QEAA@XZ
	??1VfsEM_AES256GCM_SHA256@bctoolbox@@UEAA@XZ
	??1VfsEncryption@bctoolbox@@QEAA@XZ
	??1VfsEncryptionModule@bctoolbox@@UEAA@XZ
	??1VfsEncryptionModuleDummy@bctoolbox@@UEAA@XZ
	??1_Clear_guard@?$_Hash@V?$_Umap_traits@V?$basic_string@DU?$char_traits@D@std@@V?$allocator@D@2@@std@@IV?$_Uhash_compare@V?$basic_string@DU?$char_traits@D@std@@V?$allocator@D@2@@std@@U?$hash@V?$basic_string@DU?$char_traits@D@std@@V?$allocator@D@2@@std@@@2@U?$equal_to@V?$basic_string@DU?$char_traits@D@std@@V?$allocator@D@2@@std@@@2@@2@V?$allocator@U?$pair@$$CBV?$basic_string@DU?$char_traits@D@std@@V?$allocator@D@2@@std@@I@std@@@2@$0A@@std@@@std@@QEAA@XZ
	??1_Node_base@std@@UEAA@XZ
	??1_Range_eraser@?$_Hash@V?$_Umap_traits@V?$basic_string@DU?$char_traits@D@std@@V?$allocator@D@2@@std@@IV?$_Uhash_compare@V?$basic_string@DU?$char_traits@D@std@@V?$allocator@D@2@@std@@U?$hash@V?$basic_string@DU?$char_traits@D@std@@V?$allocator@D@2@@std@@@2@U?$equal_to@V?$basic_string@DU?$char_traits@D@std@@V?$allocator@D@2@@std@@@2@@2@V?$allocator@U?$pair@$$CBV?$basic_string@DU?$char_traits@D@std@@V?$allocator@D@2@@std@@I@std@@@2@$0A@@std@@@std@@QEAA@XZ
	??1_Ref_count_base@std@@UEAA@XZ
	??1_Sentry_base@?$basic_ostream@DU?$char_traits@D@std@@@std@@QEAA@XZ
	??1bad_alloc@std@@UEAA@XZ
	??1bad_array_new_length@std@@UEAA@XZ
	??1bad_cast@std@@UEAA@XZ
	??1exception@std@@UEAA@XZ
	??1locale@std@@QEAA@XZ
	??1pumpstream@@QEAA@XZ
	??1sentry@?$basic_ostream@DU?$char_traits@D@std@@@std@@QEAA@XZ
	??4?$_Tgt_state_t@PEBD@std@@QEAAAEAV01@AEBV01@@Z
	??4?$basic_string@DU?$char_traits@D@std@@V?$allocator@D@2@@std@@QEAAAEAV01@$$QEAV01@@Z
	??4?$shared_ptr@VVfsEncryptionModule@bctoolbox@@@std@@QEAAAEAV01@$$QEAV01@@Z
	??4?$vector@EV?$allocator@E@std@@@std@@QEAAAEAV01@$$QEAV01@@Z
	??4?$vector@_NV?$allocator@_N@std@@@std@@QEAAAEAV01@AEBV01@@Z
	??6@YAAEAV?$basic_ostream@DU?$char_traits@D@std@@@std@@AEAV01@AEBVBctbxException@@@Z
	??A?$basic_string@DU?$char_traits@D@std@@V?$allocator@D@2@@std@@QEAAAEAD_K@Z
	??E?$_Tree_unchecked_const_iterator@V?$_Tree_val@U?$_Tree_simple_types@U?$pair@$$CBV?$basic_string@DU?$char_traits@D@std@@V?$allocator@D@2@@std@@PEAX@std@@@std@@@std@@U_Iterator_base0@2@@std@@QEAAAEAV01@XZ
	??E?$_Tree_unchecked_const_iterator@V?$_Tree_val@U?$_Tree_simple_types@U?$pair@$$CB_KPEAX@std@@@std@@@std@@U_Iterator_base0@2@@std@@QEAAAEAV01@XZ
	??F?$_Tree_iterator@V?$_Tree_val@U?$_Tree_simple_types@U?$pair@$$CBV?$basic_string@DU?$char_traits@D@std@@V?$allocator@D@2@@std@@V?$stack@UTagValue@LogTags@bctoolbox@@V?$deque@UTagValue@LogTags@bctoolbox@@V?$allocator@UTagValue@LogTags@bctoolbox@@@std@@@std@@@2@@std@@@std@@@std@@@std@@QEAAAEAV01@XZ
	??H?$_Vb_iterator@U?$_Wrap_alloc@V?$allocator@I@std@@@std@@@std@@QEBA?AV01@_J@Z
	??_7?$_Node_class@DV?$regex_traits@D@std@@@std@@6B@
	??_7?$_Node_str@D@std@@6B@
	??_7?$_Ref_count_obj2@VRNG@bctoolbox@@@std@@6B@
	??_7?$_Ref_count_obj2@VVfsEM_AES256GCM_SHA256@bctoolbox@@@std@@6B@
	??_7?$_Ref_count_obj2@VVfsEncryptionModuleDummy@bctoolbox@@@std@@6B@
	??_7?$basic_ostringstream@DU?$char_traits@D@std@@V?$allocator@D@2@@std@@6B@
	??_7?$basic_stringbuf@DU?$char_traits@D@std@@V?$allocator@D@2@@std@@6B@
	??_7?$basic_stringstream@DU?$char_traits@D@std@@V?$allocator@D@2@@std@@6B@
	??_7?$collate@D@std@@6B@
	??_7BctbxException@@6B@
	??_7EvfsException@bctoolbox@@6B@
	??_7VfsEM_AES256GCM_SHA256@bctoolbox@@6B@
	??_7VfsEncryptionModule@bctoolbox@@6B@
	??_7VfsEncryptionModuleDummy@bctoolbox@@6B@
	??_7_Node_assert@std@@6B@
	??_7_Node_back@std@@6B@
	??_7_Node_base@std@@6B@
	??_7_Node_capture@std@@6B@
	??_7_Node_end_group@std@@6B@
	??_7_Node_end_rep@std@@6B@
	??_7_Node_endif@std@@6B@
	??_7_Node_if@std@@6B@
	??_7_Node_rep@std@@6B@
	??_7_Root_node@std@@6B@
	??_7bad_alloc@std@@6B@
	??_7bad_array_new_length@std@@6B@
	??_7bad_cast@std@@6B@
	??_7exception@std@@6B@
	??_D?$basic_ostringstream@DU?$char_traits@D@std@@V?$allocator@D@2@@std@@QEAAXXZ
	??_D?$basic_stringstream@DU?$char_traits@D@std@@V?$allocator@D@2@@std@@QEAAXXZ
	??_FBctbxException@@QEAAXXZ
	?AES_key_unwrap@bctoolbox@@YAHAEBV?$vector@EV?$allocator@E@std@@@std@@0AEAV23@W4AesId@1@@Z
	?AES_key_wrap@bctoolbox@@YAHAEBV?$vector@EV?$allocator@E@std@@@std@@0AEAV23@W4AesId@1@@Z
	?_Add_backreference@?$_Builder@PEBDDV?$regex_traits@D@std@@@std@@QEAAXI@Z
	?_Add_bol@?$_Builder@PEBDDV?$regex_traits@D@std@@@std@@QEAAXXZ
	?_Add_char@?$_Builder@PEBDDV?$regex_traits@D@std@@@std@@QEAAXD@Z
	?_Add_char_to_array@?$_Builder@PEBDDV?$regex_traits@D@std@@@std@@AEAAXD@Z
	?_Add_char_to_bitmap@?$_Builder@PEBDDV?$regex_traits@D@std@@@std@@AEAAXD@Z
	?_Add_char_to_class@?$_Builder@PEBDDV?$regex_traits@D@std@@@std@@QEAAXD@Z
	?_Add_class@?$_Builder@PEBDDV?$regex_traits@D@std@@@std@@QEAAXXZ
	?_Add_coll@?$_Builder@PEBDDV?$regex_traits@D@std@@@std@@QEAAXPEBD0_J@Z
	?_Add_dot@?$_Builder@PEBDDV?$regex_traits@D@std@@@std@@QEAAXXZ
	?_Add_elts@?$_Builder@PEBDDV?$regex_traits@D@std@@@std@@AEAAXPEAV?$_Node_class@DV?$regex_traits@D@std@@@2@F_N@Z
	?_Add_eol@?$_Builder@PEBDDV?$regex_traits@D@std@@@std@@QEAAXXZ
	?_Add_equiv@?$_Builder@PEBDDV?$regex_traits@D@std@@@std@@QEAAXPEBD0_J@Z
	?_Add_named_class@?$_Builder@PEBDDV?$regex_traits@D@std@@@std@@QEAAXF_N@Z
	?_Add_range@?$_Builder@PEBDDV?$regex_traits@D@std@@@std@@QEAAXDD@Z
	?_Add_rep@?$_Builder@PEBDDV?$regex_traits@D@std@@@std@@QEAAXHH_N@Z
	?_Add_str_node@?$_Builder@PEBDDV?$regex_traits@D@std@@@std@@AEAAXXZ
	?_Add_wbound@?$_Builder@PEBDDV?$regex_traits@D@std@@@std@@QEAAXXZ
	?_Alternative@?$_Parser@PEBDDV?$regex_traits@D@std@@@std@@AEAA_NXZ
	?_Assign_grow@?$_Hash_vec@V?$allocator@V?$_List_unchecked_iterator@V?$_List_val@U?$_List_simple_types@U?$pair@$$CBV?$basic_string@DU?$char_traits@D@std@@V?$allocator@D@2@@std@@I@std@@@std@@@std@@@std@@@std@@@std@@QEAAX_KV?$_List_unchecked_iterator@V?$_List_val@U?$_List_simple_types@U?$pair@$$CBV?$basic_string@DU?$char_traits@D@std@@V?$allocator@D@2@@std@@I@std@@@std@@@std@@@2@@Z
	?_AtomEscape@?$_Parser@PEBDDV?$regex_traits@D@std@@@std@@AEAAXXZ
	?_Beg_expr@?$_Builder@PEBDDV?$regex_traits@D@std@@@std@@AEBA_NPEAV_Node_base@2@@Z
	?_Beg_expr@?$_Builder@PEBDDV?$regex_traits@D@std@@@std@@QEBA_NXZ
	?_Begin_assert_group@?$_Builder@PEBDDV?$regex_traits@D@std@@@std@@QEAAPEAV_Node_base@2@_N@Z
	?_Begin_capture_group@?$_Builder@PEBDDV?$regex_traits@D@std@@@std@@QEAAPEAV_Node_base@2@I@Z
	?_Begin_group@?$_Builder@PEBDDV?$regex_traits@D@std@@@std@@QEAAPEAV_Node_base@2@XZ
	?_Begin_if@?$_Builder@PEBDDV?$regex_traits@D@std@@@std@@QEAAPEAV_Node_base@2@PEAV32@@Z
	?_Better_match@?$_Matcher@PEBDDV?$regex_traits@D@std@@PEBD@std@@AEAA_NXZ
	?_Buy_nonzero@?$vector@EV?$allocator@E@std@@@std@@AEAAX_K@Z
	?_Buy_raw@?$vector@IV?$allocator@I@std@@@std@@AEAAX_K@Z
	?_Buy_raw@?$vector@U_Grp_t@?$_Tgt_state_t@PEBD@std@@V?$allocator@U_Grp_t@?$_Tgt_state_t@PEBD@std@@@3@@std@@AEAAX_K@Z
	?_Calculate_loop_simplicity@std@@YAXPEAV_Node_base@1@0PEAV_Node_rep@1@@Z
	?_Change_array@?$vector@EV?$allocator@E@std@@@std@@AEAAXQEAE_K1@Z
	?_Char_to_elts@?$_Builder@PEBDDV?$regex_traits@D@std@@@std@@AEAAXPEBD0_JPEAPEAU?$_Sequence@D@2@@Z
	?_CharacterClass@?$_Parser@PEBDDV?$regex_traits@D@std@@@std@@AEAAXXZ
	?_CharacterClassEscape@?$_Parser@PEBDDV?$regex_traits@D@std@@@std@@AEAA_N_N@Z
	?_CharacterEscape@?$_Parser@PEBDDV?$regex_traits@D@std@@@std@@AEAA_NXZ
	?_ClassAtom@?$_Parser@PEBDDV?$regex_traits@D@std@@@std@@AEAA?AW4_Prs_ret@2@XZ
	?_ClassEscape@?$_Parser@PEBDDV?$regex_traits@D@std@@@std@@AEAA?AW4_Prs_ret@2@_N@Z
	?_ClassRanges@?$_Parser@PEBDDV?$regex_traits@D@std@@@std@@AEAAXXZ
	?_Clear_and_reserve_geometric@?$vector@EV?$allocator@E@std@@@std@@AEAAX_K@Z
	?_Clear_and_reserve_geometric@?$vector@IV?$allocator@I@std@@@std@@AEAAX_K@Z
	?_Clear_and_reserve_geometric@?$vector@U_Grp_t@?$_Tgt_state_t@PEBD@std@@V?$allocator@U_Grp_t@?$_Tgt_state_t@PEBD@std@@@3@@std@@AEAAX_K@Z
	?_Compile@?$_Parser@PEBDDV?$regex_traits@D@std@@@std@@QEAAPEAV_Root_node@2@XZ
	?_DecimalDigits@?$_Parser@PEBDDV?$regex_traits@D@std@@@std@@AEAA_NXZ
	?_Delete_this@?$_Ref_count_obj2@VRNG@bctoolbox@@@std@@EEAAXXZ
	?_Delete_this@?$_Ref_count_obj2@VVfsEM_AES256GCM_SHA256@bctoolbox@@@std@@EEAAXXZ
	?_Delete_this@?$_Ref_count_obj2@VVfsEncryptionModuleDummy@bctoolbox@@@std@@EEAAXXZ
	?_Destroy@?$_Ref_count_obj2@VRNG@bctoolbox@@@std@@EEAAXXZ
	?_Destroy@?$_Ref_count_obj2@VVfsEM_AES256GCM_SHA256@bctoolbox@@@std@@EEAAXXZ
	?_Destroy@?$_Ref_count_obj2@VVfsEncryptionModuleDummy@bctoolbox@@@std@@EEAAXXZ
	?_Destroy@?$vector@UStackFrame@@V?$allocator@UStackFrame@@@std@@@std@@AEAAXPEAUStackFrame@@0@Z
	?_Destroy@?$vector@V?$basic_string@DU?$char_traits@D@std@@V?$allocator@D@2@@std@@V?$allocator@V?$basic_string@DU?$char_traits@D@std@@V?$allocator@D@2@@std@@@2@@std@@AEAAXPEAV?$basic_string@DU?$char_traits@D@std@@V?$allocator@D@2@@2@0@Z
	?_Disjunction@?$_Parser@PEBDDV?$regex_traits@D@std@@@std@@AEAAXXZ
	?_Do_assert_group@?$_Parser@PEBDDV?$regex_traits@D@std@@@std@@AEAAX_N@Z
	?_Do_capture_group@?$_Parser@PEBDDV?$regex_traits@D@std@@@std@@AEAAXXZ
	?_Do_class@?$_Matcher@PEBDDV?$regex_traits@D@std@@PEBD@std@@AEAA_NPEAV_Node_base@2@@Z
	?_Do_digits@?$_Parser@PEBDDV?$regex_traits@D@std@@@std@@AEAAHHH@Z
	?_Do_ex_class@?$_Parser@PEBDDV?$regex_traits@D@std@@@std@@AEAAXW4_Meta_type@2@@Z
	?_Do_ffn@?$_Parser@PEBDDV?$regex_traits@D@std@@@std@@AEAA_ND@Z
	?_Do_ffnx@?$_Parser@PEBDDV?$regex_traits@D@std@@@std@@AEAA_ND@Z
	?_Do_if@?$_Matcher@PEBDDV?$regex_traits@D@std@@PEBD@std@@AEAA_NPEAV_Node_if@2@@Z
	?_Do_noncapture_group@?$_Parser@PEBDDV?$regex_traits@D@std@@@std@@AEAAXXZ
	?_Do_rep0@?$_Matcher@PEBDDV?$regex_traits@D@std@@PEBD@std@@AEAA_NPEAV_Node_rep@2@_N@Z
	?_Do_rep@?$_Matcher@PEBDDV?$regex_traits@D@std@@PEBD@std@@AEAA_NPEAV_Node_rep@2@_NH@Z
	?_Else_if@?$_Builder@PEBDDV?$regex_traits@D@std@@@std@@QEAAXPEAV_Node_base@2@0@Z
	?_End_assert_group@?$_Builder@PEBDDV?$regex_traits@D@std@@@std@@QEAAXPEAV_Node_base@2@@Z
	?_End_group@?$_Builder@PEBDDV?$regex_traits@D@std@@@std@@QEAAXPEAV_Node_base@2@@Z
	?_End_pattern@?$_Builder@PEBDDV?$regex_traits@D@std@@@std@@QEAAPEAV_Root_node@2@XZ
	?_Error@?$_Parser@PEBDDV?$regex_traits@D@std@@@std@@AEAAXW4error_type@regex_constants@2@@Z
	?_Expect@?$_Parser@PEBDDV?$regex_traits@D@std@@@std@@AEAAXW4_Meta_type@2@W4error_type@regex_constants@2@@Z
	?_Extract@?$_Tree_val@U?$_Tree_simple_types@U?$pair@$$CBV?$basic_string@DU?$char_traits@D@std@@V?$allocator@D@2@@std@@PEAX@std@@@std@@@std@@QEAAPEAU?$_Tree_node@U?$pair@$$CBV?$basic_string@DU?$char_traits@D@std@@V?$allocator@D@2@@std@@PEAX@std@@PEAX@2@V?$_Tree_unchecked_const_iterator@V?$_Tree_val@U?$_Tree_simple_types@U?$pair@$$CBV?$basic_string@DU?$char_traits@D@std@@V?$allocator@D@2@@std@@PEAX@std@@@std@@@std@@U_Iterator_base0@2@@2@@Z
	?_Extract@?$_Tree_val@U?$_Tree_simple_types@U?$pair@$$CB_KPEAX@std@@@std@@@std@@QEAAPEAU?$_Tree_node@U?$pair@$$CB_KPEAX@std@@PEAX@2@V?$_Tree_unchecked_const_iterator@V?$_Tree_val@U?$_Tree_simple_types@U?$pair@$$CB_KPEAX@std@@@std@@@std@@U_Iterator_base0@2@@2@@Z
	?_Forced_rehash@?$_Hash@V?$_Umap_traits@V?$basic_string@DU?$char_traits@D@std@@V?$allocator@D@2@@std@@IV?$_Uhash_compare@V?$basic_string@DU?$char_traits@D@std@@V?$allocator@D@2@@std@@U?$hash@V?$basic_string@DU?$char_traits@D@std@@V?$allocator@D@2@@std@@@2@U?$equal_to@V?$basic_string@DU?$char_traits@D@std@@V?$allocator@D@2@@std@@@2@@2@V?$allocator@U?$pair@$$CBV?$basic_string@DU?$char_traits@D@std@@V?$allocator@D@2@@std@@I@std@@@2@$0A@@std@@@std@@IEAAX_K@Z
	?_Get_bmax@?$_Builder@PEBDDV?$regex_traits@D@std@@@std@@AEBAIXZ
	?_Get_deleter@_Ref_count_base@std@@UEBAPEAXAEBVtype_info@@@Z
	?_Get_ncap@?$_Matcher@PEBDDV?$regex_traits@D@std@@PEBD@std@@AEBAIXZ
	?_Get_tmax@?$_Builder@PEBDDV?$regex_traits@D@std@@@std@@AEBAIXZ
	?_Getal@?$vector@EV?$allocator@E@std@@@std@@AEAAAEAV?$allocator@E@2@XZ
	?_Getal@?$vector@IV?$allocator@I@std@@@std@@AEAAAEAV?$allocator@I@2@XZ
	?_Getal@?$vector@U_Grp_t@?$_Tgt_state_t@PEBD@std@@V?$allocator@U_Grp_t@?$_Tgt_state_t@PEBD@std@@@3@@std@@AEAAAEAV?$allocator@U_Grp_t@?$_Tgt_state_t@PEBD@std@@@2@XZ
	?_Getal@?$vector@U_Loop_vals_t@std@@V?$allocator@U_Loop_vals_t@std@@@2@@std@@AEAAAEAV?$allocator@U_Loop_vals_t@std@@@2@XZ
	?_Getal@?$vector@V?$sub_match@PEBD@std@@V?$allocator@V?$sub_match@PEBD@std@@@2@@std@@AEAAAEAV?$allocator@V?$sub_match@PEBD@std@@@2@XZ
	?_Getmark@?$_Builder@PEBDDV?$regex_traits@D@std@@@std@@QEBAPEAV_Node_base@2@XZ
	?_Growmap@?$deque@UTagValue@LogTags@bctoolbox@@V?$allocator@UTagValue@LogTags@bctoolbox@@@std@@@std@@AEAAX_K@Z
	?_HexDigits@?$_Parser@PEBDDV?$regex_traits@D@std@@@std@@AEAAXH@Z
	?_IdentityEscape@?$_Parser@PEBDDV?$regex_traits@D@std@@@std@@AEAA_NXZ
	?_Insert_node@?$_Builder@PEBDDV?$regex_traits@D@std@@@std@@CAXPEAV_Node_base@2@0@Z
	?_Insert_node@?$_Tree_val@U?$_Tree_simple_types@U?$pair@$$CBV?$basic_string@DU?$char_traits@D@std@@V?$allocator@D@2@@std@@PEAX@std@@@std@@@std@@QEAAPEAU?$_Tree_node@U?$pair@$$CBV?$basic_string@DU?$char_traits@D@std@@V?$allocator@D@2@@std@@PEAX@std@@PEAX@2@U?$_Tree_id@PEAU?$_Tree_node@U?$pair@$$CBV?$basic_string@DU?$char_traits@D@std@@V?$allocator@D@2@@std@@PEAX@std@@PEAX@std@@@2@QEAU32@@Z
	?_Insert_node@?$_Tree_val@U?$_Tree_simple_types@U?$pair@$$CBV?$basic_string@DU?$char_traits@D@std@@V?$allocator@D@2@@std@@V12@@std@@@std@@@std@@QEAAPEAU?$_Tree_node@U?$pair@$$CBV?$basic_string@DU?$char_traits@D@std@@V?$allocator@D@2@@std@@V12@@std@@PEAX@2@U?$_Tree_id@PEAU?$_Tree_node@U?$pair@$$CBV?$basic_string@DU?$char_traits@D@std@@V?$allocator@D@2@@std@@V12@@std@@PEAX@std@@@2@QEAU32@@Z
	?_Insert_node@?$_Tree_val@U?$_Tree_simple_types@U?$pair@$$CBV?$basic_string@DU?$char_traits@D@std@@V?$allocator@D@2@@std@@V?$stack@UTagValue@LogTags@bctoolbox@@V?$deque@UTagValue@LogTags@bctoolbox@@V?$allocator@UTagValue@LogTags@bctoolbox@@@std@@@std@@@2@@std@@@std@@@std@@QEAAPEAU?$_Tree_node@U?$pair@$$CBV?$basic_string@DU?$char_traits@D@std@@V?$allocator@D@2@@std@@V?$stack@UTagValue@LogTags@bctoolbox@@V?$deque@UTagValue@LogTags@bctoolbox@@V?$allocator@UTagValue@LogTags@bctoolbox@@@std@@@std@@@2@@std@@PEAX@2@U?$_Tree_id@PEAU?$_Tree_node@U?$pair@$$CBV?$basic_string@DU?$char_traits@D@std@@V?$allocator@D@2@@std@@V?$stack@UTagValue@LogTags@bctoolbox@@V?$deque@UTagValue@LogTags@bctoolbox@@V?$allocator@UTagValue@LogTags@bctoolbox@@@std@@@std@@@2@@std@@PEAX@std@@@2@QEAU32@@Z
	?_Insert_node@?$_Tree_val@U?$_Tree_simple_types@U?$pair@$$CB_KPEAX@std@@@std@@@std@@QEAAPEAU?$_Tree_node@U?$pair@$$CB_KPEAX@std@@PEAX@2@U?$_Tree_id@PEAU?$_Tree_node@U?$pair@$$CB_KPEAX@std@@PEAX@std@@@2@QEAU32@@Z
	?_Insert_x@?$vector@_NV?$allocator@_N@std@@@std@@QEAA_KV?$_Vb_const_iterator@U?$_Wrap_alloc@V?$allocator@I@std@@@std@@@2@_K@Z
	?_IsIdentityEscape@?$_Parser@PEBDDV?$regex_traits@D@std@@@std@@AEBA_NXZ
	?_Is_esc@?$_Parser@PEBDDV?$regex_traits@D@std@@@std@@AEBA_NXZ
	?_Is_wbound@?$_Matcher@PEBDDV?$regex_traits@D@std@@PEBD@std@@AEBA_NXZ
	?_Link_node@?$_Builder@PEBDDV?$regex_traits@D@std@@@std@@AEAAPEAV_Node_base@2@PEAV32@@Z
	?_Lrotate@?$_Tree_val@U?$_Tree_simple_types@U?$pair@$$CBV?$basic_string@DU?$char_traits@D@std@@V?$allocator@D@2@@std@@PEAX@std@@@std@@@std@@QEAAXPEAU?$_Tree_node@U?$pair@$$CBV?$basic_string@DU?$char_traits@D@std@@V?$allocator@D@2@@std@@PEAX@std@@PEAX@2@@Z
	?_Lrotate@?$_Tree_val@U?$_Tree_simple_types@U?$pair@$$CB_KPEAX@std@@@std@@@std@@QEAAXPEAU?$_Tree_node@U?$pair@$$CB_KPEAX@std@@PEAX@2@@Z
	?_Maklocwcs@std@@YAPEA_WPEB_W@Z
	?_Mark_final@?$_Builder@PEBDDV?$regex_traits@D@std@@@std@@QEAAXXZ
	?_Match_pat@?$_Matcher@PEBDDV?$regex_traits@D@std@@PEBD@std@@AEAA_NPEAV_Node_base@2@@Z
	?_Negate@?$_Builder@PEBDDV?$regex_traits@D@std@@@std@@QEAAXXZ
	?_New_node@?$_Builder@PEBDDV?$regex_traits@D@std@@@std@@AEAAPEAV_Node_base@2@W4_Node_type@2@@Z
	?_Next@?$_Parser@PEBDDV?$regex_traits@D@std@@@std@@AEAAXXZ
	?_OctalDigits@?$_Parser@PEBDDV?$regex_traits@D@std@@@std@@AEAA_NXZ
	?_Quantifier@?$_Parser@PEBDDV?$regex_traits@D@std@@@std@@AEAAXXZ
	?_Reallocate_exactly@?$vector@EV?$allocator@E@std@@@std@@AEAAX_K@Z
	?_Resize@?$match_results@PEBDV?$allocator@V?$sub_match@PEBD@std@@@std@@@std@@QEAAXI@Z
	?_Rrotate@?$_Tree_val@U?$_Tree_simple_types@U?$pair@$$CBV?$basic_string@DU?$char_traits@D@std@@V?$allocator@D@2@@std@@PEAX@std@@@std@@@std@@QEAAXPEAU?$_Tree_node@U?$pair@$$CBV?$basic_string@DU?$char_traits@D@std@@V?$allocator@D@2@@std@@PEAX@std@@PEAX@2@@Z
	?_Rrotate@?$_Tree_val@U?$_Tree_simple_types@U?$pair@$$CB_KPEAX@std@@@std@@@std@@QEAAXPEAU?$_Tree_node@U?$pair@$$CB_KPEAX@std@@PEAX@2@@Z
	?_Setlong@?$_Builder@PEBDDV?$regex_traits@D@std@@@std@@QEAAXXZ
	?_Swap@?$_Func_class@XAEAVVfsEncryption@bctoolbox@@@std@@IEAAXAEAV12@@Z
	?_Throw_bad_array_new_length@std@@YAXXZ
	?_Throw_bad_cast@std@@YAXXZ
	?_Throw_tree_length_error@std@@YAXXZ
	?_Tidy@?$_Builder@PEBDDV?$regex_traits@D@std@@@std@@QEAAXXZ
	?_Tidy@?$basic_regex@DV?$regex_traits@D@std@@@std@@AEAAXXZ
	?_Tidy@?$vector@DV?$allocator@D@std@@@std@@AEAAXXZ
	?_Tidy@?$vector@EV?$allocator@E@std@@@std@@AEAAXXZ
	?_Tidy@?$vector@IV?$allocator@I@std@@@std@@AEAAXXZ
	?_Tidy@?$vector@U_Grp_t@?$_Tgt_state_t@PEBD@std@@V?$allocator@U_Grp_t@?$_Tgt_state_t@PEBD@std@@@3@@std@@AEAAXXZ
	?_Trans@?$_Parser@PEBDDV?$regex_traits@D@std@@@std@@AEAAXXZ
	?_Trim@?$vector@_NV?$allocator@_N@std@@@std@@QEAAX_K@Z
	?_Ufill@?$vector@IV?$allocator@I@std@@@std@@AEAAPEAIPEAI_KAEBI@Z
	?_Umove@?$vector@EV?$allocator@E@std@@@std@@AEAAPEAEPEAE00@Z
	?_Unchecked_erase@?$_Hash@V?$_Umap_traits@V?$basic_string@DU?$char_traits@D@std@@V?$allocator@D@2@@std@@IV?$_Uhash_compare@V?$basic_string@DU?$char_traits@D@std@@V?$allocator@D@2@@std@@U?$hash@V?$basic_string@DU?$char_traits@D@std@@V?$allocator@D@2@@std@@@2@U?$equal_to@V?$basic_string@DU?$char_traits@D@std@@V?$allocator@D@2@@std@@@2@@2@V?$allocator@U?$pair@$$CBV?$basic_string@DU?$char_traits@D@std@@V?$allocator@D@2@@std@@I@std@@@2@$0A@@std@@@std@@AEAAPEAU?$_List_node@U?$pair@$$CBV?$basic_string@DU?$char_traits@D@std@@V?$allocator@D@2@@std@@I@std@@PEAX@2@PEAU32@QEAU32@@Z
	?_Wrapped_disjunction@?$_Parser@PEBDDV?$regex_traits@D@std@@@std@@AEAA_NXZ
	?_Xlen@?$deque@UTagValue@LogTags@bctoolbox@@V?$allocator@UTagValue@LogTags@bctoolbox@@@std@@@std@@AEBAXXZ
	?_Xlen@?$vector@_NV?$allocator@_N@std@@@std@@QEBAXXZ
	?_Xlen_string@std@@YAXXZ
	?_Xlength@?$vector@DV?$allocator@D@std@@@std@@CAXXZ
	?_Xlength@?$vector@EV?$allocator@E@std@@@std@@CAXXZ
	?_Xlength@?$vector@IV?$allocator@I@std@@@std@@CAXXZ
	?_Xlength@?$vector@UStackFrame@@V?$allocator@UStackFrame@@@std@@@std@@CAXXZ
	?_Xlength@?$vector@U_Grp_t@?$_Tgt_state_t@PEBD@std@@V?$allocator@U_Grp_t@?$_Tgt_state_t@PEBD@std@@@3@@std@@CAXXZ
	?_Xlength@?$vector@U_Loop_vals_t@std@@V?$allocator@U_Loop_vals_t@std@@@2@@std@@CAXXZ
	?_Xlength@?$vector@V?$basic_string@DU?$char_traits@D@std@@V?$allocator@D@2@@std@@V?$allocator@V?$basic_string@DU?$char_traits@D@std@@V?$allocator@D@2@@std@@@2@@std@@CAXXZ
	?_Xlength@?$vector@V?$sub_match@PEBD@std@@V?$allocator@V?$sub_match@PEBD@std@@@2@@std@@CAXXZ
	?_Xran@?$_String_val@U?$_Simple_types@D@std@@@std@@SAXXZ
	?_abrt_signal_hook@@YAXH@Z
	?_egv_signal_hook@@YAXH@Z
	?_fpe_signal_hook@@YAXH@Z
	?_ill_signal_hook@@YAXH@Z
	?_signal_hook@@YAXH@Z
	?_term_signal_hook@@YAXH@Z
	?_terminate_hook@@YAXXZ
	?_unhandled_exceptions_hook@@YAJPEAU_EXCEPTION_POINTERS@@@Z
	?append@?$basic_string@DU?$char_traits@D@std@@V?$allocator@D@2@@std@@QEAAAEAV12@QEBD_K@Z
	?assign@?$basic_string@DU?$char_traits@D@std@@V?$allocator@D@2@@std@@QEAAAEAV12@QEBD_K@Z
	?cRandomize@RNG@bctoolbox@@SAIXZ
	?cRandomize@RNG@bctoolbox@@SAXPEAE_K@Z
	?checkIntegrity@VfsEM_AES256GCM_SHA256@bctoolbox@@UEAA_NAEBVVfsEncryption@2@@Z
	?checkIntegrity@VfsEncryptionModuleDummy@bctoolbox@@UEAA_NAEBVVfsEncryption@2@@Z
	?chunkIntegrityTag@VfsEncryptionModuleDummy@bctoolbox@@AEBA?AV?$vector@EV?$allocator@E@std@@@std@@AEBV34@@Z
	?chunkSizeGet@VfsEncryption@bctoolbox@@QEBA_KXZ
	?chunkSizeSet@VfsEncryption@bctoolbox@@QEAAX_K@Z
	?compare@?$basic_string@DU?$char_traits@D@std@@V?$allocator@D@2@@std@@QEBAH_K0AEBV12@@Z
	?createCopy@LogTags@bctoolbox@@QEAA?AV?$map@V?$basic_string@DU?$char_traits@D@std@@V?$allocator@D@2@@std@@V12@U?$less@V?$basic_string@DU?$char_traits@D@std@@V?$allocator@D@2@@std@@@2@V?$allocator@U?$pair@$$CBV?$basic_string@DU?$char_traits@D@std@@V?$allocator@D@2@@std@@V12@@std@@@2@@std@@XZ
	?deallocate@?$allocator@D@std@@QEAAXQEAD_K@Z
	?deallocate@?$allocator@E@std@@QEAAXQEAE_K@Z
	?deallocate@?$allocator@I@std@@QEAAXQEAI_K@Z
	?deallocate@?$allocator@UStackFrame@@@std@@QEAAXQEAUStackFrame@@_K@Z
	?deallocate@?$allocator@U_Grp_t@?$_Tgt_state_t@PEBD@std@@@std@@QEAAXQEAU_Grp_t@?$_Tgt_state_t@PEBD@2@_K@Z
	?deallocate@?$allocator@U_Loop_vals_t@std@@@std@@QEAAXQEAU_Loop_vals_t@2@_K@Z
	?deallocate@?$allocator@V?$basic_string@DU?$char_traits@D@std@@V?$allocator@D@2@@std@@@std@@QEAAXQEAV?$basic_string@DU?$char_traits@D@std@@V?$allocator@D@2@@2@_K@Z
	?deallocate@?$allocator@V?$sub_match@PEBD@std@@@std@@QEAAXQEAV?$sub_match@PEBD@2@_K@Z
	?decodeBase64@bctoolbox@@YA?AV?$vector@EV?$allocator@E@std@@@std@@AEBV?$basic_string@DU?$char_traits@D@std@@V?$allocator@D@2@@3@@Z
	?decryptChunk@VfsEM_AES256GCM_SHA256@bctoolbox@@UEAA?AV?$vector@EV?$allocator@E@std@@@std@@IAEBV34@@Z
	?decryptChunk@VfsEncryptionModuleDummy@bctoolbox@@UEAA?AV?$vector@EV?$allocator@E@std@@@std@@IAEBV34@@Z
	?deriveChunkKey@VfsEM_AES256GCM_SHA256@bctoolbox@@AEAA?AV?$vector@EV?$allocator@E@std@@@std@@I@Z
	?do_compare@?$collate@D@std@@MEBAHPEBD000@Z
	?do_hash@?$collate@D@std@@MEBAJPEBD0@Z
	?do_transform@?$collate@D@std@@MEBA?AV?$basic_string@DU?$char_traits@D@std@@V?$allocator@D@2@@2@PEBD0@Z
	?encodeBase64@bctoolbox@@YA?AV?$basic_string@DU?$char_traits@D@std@@V?$allocator@D@2@@std@@AEBV?$vector@EV?$allocator@E@std@@@3@@Z
	?encryptChunk@VfsEM_AES256GCM_SHA256@bctoolbox@@UEAA?AV?$vector@EV?$allocator@E@std@@@std@@IAEBV34@@Z
	?encryptChunk@VfsEM_AES256GCM_SHA256@bctoolbox@@UEAAXIAEAV?$vector@EV?$allocator@E@std@@@std@@AEBV34@@Z
	?encryptChunk@VfsEncryptionModuleDummy@bctoolbox@@UEAA?AV?$vector@EV?$allocator@E@std@@@std@@IAEBV34@@Z
	?encryptChunk@VfsEncryptionModuleDummy@bctoolbox@@UEAAXIAEAV?$vector@EV?$allocator@E@std@@@std@@AEBV34@@Z
	?encryptionSuiteGet@VfsEncryption@bctoolbox@@QEBA?AW4EncryptionSuite@2@XZ
	?encryptionSuiteSet@VfsEncryption@bctoolbox@@QEAAXW4EncryptionSuite@2@@Z
	?encryptionSuiteString@bctoolbox@@YA?BV?$basic_string@DU?$char_traits@D@std@@V?$allocator@D@2@@std@@W4EncryptionSuite@1@@Z
	?erase@?$vector@_NV?$allocator@_N@std@@@std@@QEAA?AV?$_Vb_iterator@U?$_Wrap_alloc@V?$allocator@I@std@@@std@@@2@V?$_Vb_const_iterator@U?$_Wrap_alloc@V?$allocator@I@std@@@std@@@2@0@Z
	?fileSizeGet@VfsEncryption@bctoolbox@@QEBA_JXZ
	?filenameGet@VfsEncryption@bctoolbox@@QEBA?AV?$basic_string@DU?$char_traits@D@std@@V?$allocator@D@2@@std@@XZ
	?fold@Utils@bctoolbox@@YA?AV?$basic_string@DU?$char_traits@D@std@@V?$allocator@D@2@@std@@AEBV34@@Z
	?getChunkHeaderSize@VfsEM_AES256GCM_SHA256@bctoolbox@@UEBA_KXZ
	?getChunkHeaderSize@VfsEncryptionModuleDummy@bctoolbox@@UEBA_KXZ
	?getChunkIndex@VfsEncryption@bctoolbox@@AEBAI_K@Z
	?getChunkIndex@VfsEncryptionModuleDummy@bctoolbox@@AEBAIAEBV?$vector@EV?$allocator@E@std@@@std@@@Z
	?getChunkOffset@VfsEncryption@bctoolbox@@AEBA_KI@Z
	?getEncryptionSuite@VfsEM_AES256GCM_SHA256@bctoolbox@@UEBA?AW4EncryptionSuite@2@XZ
	?getEncryptionSuite@VfsEncryptionModuleDummy@bctoolbox@@UEBA?AW4EncryptionSuite@2@XZ
	?getMemoryReportAsString@Utils@bctoolbox@@YA?AV?$basic_string@DU?$char_traits@D@std@@V?$allocator@D@2@@std@@XZ
	?getModuleFileHeader@VfsEM_AES256GCM_SHA256@bctoolbox@@UEBA?BV?$vector@EV?$allocator@E@std@@@std@@AEBVVfsEncryption@2@@Z
	?getModuleFileHeader@VfsEncryptionModuleDummy@bctoolbox@@UEBA?BV?$vector@EV?$allocator@E@std@@@std@@AEBVVfsEncryption@2@@Z
	?getModuleFileHeaderSize@VfsEM_AES256GCM_SHA256@bctoolbox@@UEBA_KXZ
	?getModuleFileHeaderSize@VfsEncryptionModuleDummy@bctoolbox@@UEBA_KXZ
	?getSecretMaterialSize@VfsEM_AES256GCM_SHA256@bctoolbox@@UEBA_KXZ
	?getSecretMaterialSize@VfsEncryptionModuleDummy@bctoolbox@@UEBA_KXZ
	?getStackTrace@@YA?AV?$vector@UStackFrame@@V?$allocator@UStackFrame@@@std@@@std@@XZ
	?getTags@LogTags@bctoolbox@@QEAAAEBV?$list@V?$basic_string@DU?$char_traits@D@std@@V?$allocator@D@2@@std@@V?$allocator@V?$basic_string@DU?$char_traits@D@std@@V?$allocator@D@2@@std@@@2@@std@@XZ
	?globalIV@VfsEncryptionModuleDummy@bctoolbox@@AEBA?AV?$vector@EV?$allocator@E@std@@@std@@XZ
	?hex@std@@YAAEAVios_base@1@AEAV21@@Z
	?insert@?$vector@EV?$allocator@E@std@@@std@@QEAA?AV?$_Vector_iterator@V?$_Vector_val@U?$_Simple_types@E@std@@@std@@@2@V?$_Vector_const_iterator@V?$_Vector_val@U?$_Simple_types@E@std@@@std@@@2@_KAEBE@Z
	?isExecutableInstalled@Utils@bctoolbox@@YA_NAEBV?$basic_string@DU?$char_traits@D@std@@V?$allocator@D@2@@std@@0@Z
	?keySize@AES256GCM128@bctoolbox@@SA_KXZ
	?moduleFileHeaderSize@VfsEM_AES256GCM_SHA256@bctoolbox@@SA_KXZ
	?moduleFileHeaderSize@VfsEncryptionModuleDummy@bctoolbox@@SA_KXZ
	?name@locale@std@@QEBA?AV?$basic_string@DU?$char_traits@D@std@@V?$allocator@D@2@@2@XZ
	?openCallbackGet@VfsEncryption@bctoolbox@@SA?AV?$function@$$A6AXAEAVVfsEncryption@bctoolbox@@@Z@std@@XZ
	?openCallbackSet@VfsEncryption@bctoolbox@@SAXAEBV?$function@$$A6AXAEAVVfsEncryption@bctoolbox@@@Z@std@@@Z
	?overflow@?$basic_stringbuf@DU?$char_traits@D@std@@V?$allocator@D@2@@std@@MEAAHH@Z
	?parseHeader@VfsEncryption@bctoolbox@@AEAAXXZ
	?paste@LogTags@bctoolbox@@QEAAXAEBV?$map@V?$basic_string@DU?$char_traits@D@std@@V?$allocator@D@2@@std@@V12@U?$less@V?$basic_string@DU?$char_traits@D@std@@V?$allocator@D@2@@std@@@2@V?$allocator@U?$pair@$$CBV?$basic_string@DU?$char_traits@D@std@@V?$allocator@D@2@@std@@V12@@std@@@2@@std@@@Z
	?pbackfail@?$basic_stringbuf@DU?$char_traits@D@std@@V?$allocator@D@2@@std@@MEAAHH@Z
	?printStackTrace@BctbxException@@QEBAXAEAV?$basic_ostream@DU?$char_traits@D@std@@@std@@@Z
	?printStackTrace@BctbxException@@QEBAXXZ
	?pushTag@LogTags@bctoolbox@@QEAAXAEBV?$basic_string@DU?$char_traits@D@std@@V?$allocator@D@2@@std@@0@Z
	?randomize@RNG@bctoolbox@@QEAA?AV?$vector@EV?$allocator@E@std@@@std@@_K@Z
	?randomize@RNG@bctoolbox@@QEAAIXZ
	?randomize@RNG@bctoolbox@@QEAAXPEAE_K@Z
	?rawChunkSizeGet@VfsEncryption@bctoolbox@@AEBA_KXZ
	?rawFileSizeGet@VfsEncryption@bctoolbox@@AEBA_KXZ
	?rawHeaderGet@VfsEncryption@bctoolbox@@QEBAAEBV?$vector@EV?$allocator@E@std@@@std@@XZ
	?read@VfsEncryption@bctoolbox@@QEBA?AV?$vector@EV?$allocator@E@std@@@std@@_K0@Z
	?replace@?$basic_string@DU?$char_traits@D@std@@V?$allocator@D@2@@std@@QEAAAEAV12@_K_KQEBD0@Z
	?replace@Utils@bctoolbox@@YAXAEAV?$basic_string@DU?$char_traits@D@std@@V?$allocator@D@2@@std@@AEBV34@1_N@Z
	?reserve@?$basic_string@DU?$char_traits@D@std@@V?$allocator@D@2@@std@@QEAAX_K@Z
	?resize@?$vector@EV?$allocator@E@std@@@std@@QEAAX_K@Z
	?resize@?$vector@_NV?$allocator@_N@std@@@std@@QEAAX_K_N@Z
	?secretMaterialSet@VfsEncryption@bctoolbox@@QEAAXAEBV?$vector@EV?$allocator@E@std@@@std@@@Z
	?seekoff@?$basic_stringbuf@DU?$char_traits@D@std@@V?$allocator@D@2@@std@@MEAA?AV?$fpos@U_Mbstatet@@@2@_JHH@Z
	?seekpos@?$basic_stringbuf@DU?$char_traits@D@std@@V?$allocator@D@2@@std@@MEAA?AV?$fpos@U_Mbstatet@@@2@V32@H@Z
	?setModuleSecretMaterial@VfsEM_AES256GCM_SHA256@bctoolbox@@UEAAXAEBV?$vector@EV?$allocator@E@std@@@std@@@Z
	?setModuleSecretMaterial@VfsEncryptionModuleDummy@bctoolbox@@UEAAXAEBV?$vector@EV?$allocator@E@std@@@std@@@Z
	?setSignalHook@@YAXHP6AXH@ZAEAP6AXH@Z@Z
	?setTerminateHook@@YAXP6AXXZAEAP6AXXZ@Z
	?setUnhandledExceptionHook@@YAXP6AJPEAU_EXCEPTION_POINTERS@@@ZAEAP6AJ0@Z@Z
	?size@?$vector@EV?$allocator@E@std@@@std@@QEBA_KXZ
	?split@Utils@bctoolbox@@YA?AV?$vector@V?$basic_string@DU?$char_traits@D@std@@V?$allocator@D@2@@std@@V?$allocator@V?$basic_string@DU?$char_traits@D@std@@V?$allocator@D@2@@std@@@2@@std@@AEBV?$basic_string@DU?$char_traits@D@std@@V?$allocator@D@2@@4@0@Z
	?split@Utils@bctoolbox@@YA?AV?$vector@V?$basic_string@DU?$char_traits@D@std@@V?$allocator@D@2@@std@@V?$allocator@V?$basic_string@DU?$char_traits@D@std@@V?$allocator@D@2@@std@@@2@@std@@AEBV?$basic_string@DU?$char_traits@D@std@@V?$allocator@D@2@@4@D@Z
	?str@?$basic_ostringstream@DU?$char_traits@D@std@@V?$allocator@D@2@@std@@QEBA?AV?$basic_string@DU?$char_traits@D@std@@V?$allocator@D@2@@2@XZ
	?str@?$basic_stringbuf@DU?$char_traits@D@std@@V?$allocator@D@2@@std@@QEBA?AV?$basic_string@DU?$char_traits@D@std@@V?$allocator@D@2@@2@XZ
	?str@BctbxException@@QEBAAEBV?$basic_string@DU?$char_traits@D@std@@V?$allocator@D@2@@std@@XZ
	?substr@?$basic_string@DU?$char_traits@D@std@@V?$allocator@D@2@@std@@QEBA?AV12@_K0@Z
	?tagSize@AES256GCM128@bctoolbox@@SA_KXZ
	?transform@?$collate@D@std@@QEBA?AV?$basic_string@DU?$char_traits@D@std@@V?$allocator@D@2@@2@PEBD0@Z
	?translate@?$_Regex_traits@D@std@@QEBADD@Z
	?truncate@VfsEncryption@bctoolbox@@QEAAX_K@Z
	?underflow@?$basic_stringbuf@DU?$char_traits@D@std@@V?$allocator@D@2@@std@@MEAAHXZ
	?unfold@Utils@bctoolbox@@YA?AV?$basic_string@DU?$char_traits@D@std@@V?$allocator@D@2@@std@@AEBV34@@Z
	?what@BctbxException@@UEBAPEBDXZ
	?what@exception@std@@UEBAPEBDXZ
	?write@VfsEncryption@bctoolbox@@QEAA_KAEBV?$vector@EV?$allocator@E@std@@@std@@_K@Z
	?writeHeader@VfsEncryption@bctoolbox@@AEAAXPEAUbctbx_vfs_file_t@@@Z
	__bctbx_WIN_cond_broadcast
	__bctbx_WIN_cond_destroy
	__bctbx_WIN_cond_init
	__bctbx_WIN_cond_signal
	__bctbx_WIN_cond_wait
	__bctbx_WIN_inet_aton
	__bctbx_WIN_mutex_destroy
	__bctbx_WIN_mutex_init
	__bctbx_WIN_mutex_lock
	__bctbx_WIN_mutex_unlock
	__bctbx_WIN_thread_create
	__bctbx_WIN_thread_join
	__bctbx_WIN_thread_self
	__bctbx_getWinSocketError
	__local_stdio_printf_options
	__local_stdio_scanf_options
	_bctbx_freeaddrinfo
	_bctbx_list_remove
	_bctbx_list_remove_custom
	_bctbx_logv_flush
	_snprintf
	addrinfo_concat
	bctbx_CreateDHMContext
	bctbx_CreateECDHContext
	bctbx_CreateEDDSAContext
	bctbx_DHMComputeSecret
	bctbx_DHMCreatePublic
	bctbx_DestroyDHMContext
	bctbx_DestroyECDHContext
	bctbx_DestroyEDDSAContext
	bctbx_ECDHComputeSecret
	bctbx_ECDHCreateKeyPair
	bctbx_ECDHDerivePublicKey
	bctbx_ECDHSetPeerPublicKey
	bctbx_ECDHSetSecretKey
	bctbx_ECDHSetSelfPublicKey
	bctbx_EDDSACreateKeyPair
	bctbx_EDDSADerivePublicKey
	bctbx_EDDSA_ECDH_privateKeyConversion
	bctbx_EDDSA_ECDH_publicKeyConversion
	bctbx_EDDSA_setPublicKey
	bctbx_EDDSA_setSecretKey
	bctbx_EDDSA_sign
	bctbx_EDDSA_verify
	bctbx_add_log_handler
	bctbx_addrinfo_sort
	bctbx_addrinfo_to_ip_address
	bctbx_addrinfo_to_printable_ip_address
	bctbx_aes128CfbDecrypt
	bctbx_aes128CfbEncrypt
	bctbx_aes256CfbDecrypt
	bctbx_aes256CfbEncrypt
	bctbx_aes_gcm_context_new
	bctbx_aes_gcm_decryptFile
	bctbx_aes_gcm_decrypt_and_auth
	bctbx_aes_gcm_encryptFile
	bctbx_aes_gcm_encrypt_and_tag
	bctbx_aes_gcm_finish
	bctbx_aes_gcm_process_chunk
	bctbx_base64_decode
	bctbx_base64_encode
	bctbx_basename
	bctbx_bind
	bctbx_byte_to_char
	bctbx_char_to_byte
	bctbx_clean
	bctbx_clear_thread_log_level
	bctbx_client_pipe_close
	bctbx_client_pipe_connect
	bctbx_concat
	bctbx_connect
	bctbx_convert_any_to_utf8
	bctbx_convert_string
	bctbx_convert_utf8_to_any
	bctbx_create_file_log_handler
	bctbx_create_log_handler
	bctbx_create_log_tags_copy
	bctbx_crypto_have_ecc
	bctbx_directory_exists
	bctbx_dirname
	bctbx_dtls_srtp_supported
	bctbx_escape
	bctbx_file_close
	bctbx_file_exist
	bctbx_file_fprintf
	bctbx_file_get_nxtline
	bctbx_file_is_encrypted
	bctbx_file_log_handler_reopen
	bctbx_file_open
	bctbx_file_open2
	bctbx_file_read
	bctbx_file_read2
	bctbx_file_seek
	bctbx_file_size
	bctbx_file_sync
	bctbx_file_truncate
	bctbx_file_write
	bctbx_file_write2
	bctbx_free
	bctbx_freeaddrinfo
	bctbx_get_char
	bctbx_get_code_page
	bctbx_get_cur_time
	bctbx_get_cur_time_ms
	bctbx_get_default_encoding
	bctbx_get_local_ip_for
	bctbx_get_log_handlers
	bctbx_get_log_level_mask
	bctbx_get_log_tags
	bctbx_get_utc_cur_time
	bctbx_getaddrinfo
	bctbx_getnameinfo
	bctbx_getsockname
	bctbx_getsockopt
	bctbx_gettimeofday
	bctbx_hmacSha1
	bctbx_hmacSha256
	bctbx_hmacSha384
	bctbx_hmacSha512
	bctbx_init_logger
	bctbx_int8_to_str
	bctbx_ip_address_to_addrinfo
	bctbx_is_matching_regex
	bctbx_is_matching_regex_log
	bctbx_is_multicast_addr
	bctbx_iterator_cchar_delete
	bctbx_iterator_cchar_equals
	bctbx_iterator_cchar_get_next
	bctbx_iterator_cchar_get_next_and_delete
	bctbx_iterator_cchar_get_pair
	bctbx_iterator_ullong_delete
	bctbx_iterator_ullong_equals
	bctbx_iterator_ullong_get_next
	bctbx_iterator_ullong_get_next_and_delete
	bctbx_iterator_ullong_get_pair
	bctbx_key_agreement_algo_list
	bctbx_list_append
	bctbx_list_append_link
	bctbx_list_concat
	bctbx_list_copy
	bctbx_list_copy_reverse_with_data
	bctbx_list_copy_with_data
	bctbx_list_delete_custom
	bctbx_list_erase_link
	bctbx_list_find
	bctbx_list_find_custom
	bctbx_list_first_elem
	bctbx_list_for_each
	bctbx_list_for_each2
	bctbx_list_free
	bctbx_list_free_with_data
	bctbx_list_get_data
	bctbx_list_index
	bctbx_list_insert
	bctbx_list_insert_sorted
	bctbx_list_last_elem
	bctbx_list_new
	bctbx_list_next
	bctbx_list_nth_data
	bctbx_list_pop_front
	bctbx_list_position
	bctbx_list_prepend
	bctbx_list_prepend_link
	bctbx_list_remove
	bctbx_list_remove_custom
	bctbx_list_remove_custom_with_data
	bctbx_list_remove_with_data
	bctbx_list_size
	bctbx_list_unlink
	bctbx_locale_to_utf8
	bctbx_log_domain_destroy
	bctbx_log_handler_get_user_data
	bctbx_log_handler_set_domain
	bctbx_log_handler_set_user_data
	bctbx_log_handlers_free
	bctbx_log_level_enabled
	bctbx_log_tags_destroy
	bctbx_logv
	bctbx_logv_file
	bctbx_logv_file_destroy
	bctbx_logv_flush
	bctbx_logv_out
	bctbx_logv_out_cb
	bctbx_logv_out_destroy
	bctbx_malloc
	bctbx_malloc0
	bctbx_map_cchar_begin
	bctbx_map_cchar_end
	bctbx_map_cchar_erase
	bctbx_map_cchar_find_custom
	bctbx_map_cchar_find_key
	bctbx_map_cchar_insert
	bctbx_map_cchar_insert_and_delete
	bctbx_map_cchar_insert_and_delete_with_returned_it
	bctbx_map_cchar_size
	bctbx_map_ullong_begin
	bctbx_map_ullong_end
	bctbx_map_ullong_erase
	bctbx_map_ullong_find_custom
	bctbx_map_ullong_find_key
	bctbx_map_ullong_insert
	bctbx_map_ullong_insert_and_delete
	bctbx_map_ullong_insert_and_delete_with_returned_it
	bctbx_map_ullong_size
	bctbx_md5
	bctbx_mkdir
	bctbx_mmap_cchar_delete
	bctbx_mmap_cchar_delete_with_data
	bctbx_mmap_cchar_new
	bctbx_mmap_ullong_delete
	bctbx_mmap_ullong_delete_with_data
	bctbx_mmap_ullong_new
	bctbx_name_to_addrinfo
	bctbx_noescape_rules_add_alfanums
	bctbx_noescape_rules_add_list
	bctbx_noescape_rules_add_range
	bctbx_pair_cchar_delete
	bctbx_pair_cchar_get_first
	bctbx_pair_cchar_get_second
	bctbx_pair_cchar_new
	bctbx_pair_ullong_delete
	bctbx_pair_ullong_get_first
	bctbx_pair_ullong_get_second
	bctbx_pair_ullong_new
	bctbx_param_string_get_bool_value
	bctbx_param_string_get_value
	bctbx_parse_directory
	bctbx_paste_log_tags
	bctbx_pipe_read
	bctbx_pipe_write
	bctbx_pop_log_tag
	bctbx_push_log_tag
	bctbx_random
	bctbx_random_bytes
	bctbx_read
	bctbx_realloc
	bctbx_recv
	bctbx_recvfrom
	bctbx_remove_log_handler
	bctbx_replace
	bctbx_rmdir
	bctbx_rng_context_free
	bctbx_rng_context_new
	bctbx_rng_get
	bctbx_send
	bctbx_sendto
	bctbx_server_pipe_accept_client
	bctbx_server_pipe_close
	bctbx_server_pipe_close_client
	bctbx_server_pipe_create
	bctbx_server_pipe_create_by_path
	bctbx_set_default_encoding
	bctbx_set_log_file
	bctbx_set_log_handler
	bctbx_set_log_handler_for_domain
	bctbx_set_log_level
	bctbx_set_log_level_mask
	bctbx_set_log_thread_id
	bctbx_set_memory_functions
	bctbx_set_self_thread_name
	bctbx_set_stack_trace_hooks
	bctbx_set_thread_log_level
	bctbx_setsockopt
	bctbx_sha256
	bctbx_sha384
	bctbx_sha512
	bctbx_shm_close
	bctbx_shm_open
	bctbx_shutdown
	bctbx_signing_key_free
	bctbx_signing_key_get_pem
	bctbx_signing_key_new
	bctbx_signing_key_parse
	bctbx_signing_key_parse_file
	bctbx_sleep_ms
	bctbx_sleep_until
	bctbx_sockaddr_equals
	bctbx_sockaddr_ipv4_to_ipv6
	bctbx_sockaddr_ipv6_to_ipv4
	bctbx_sockaddr_remove_nat64_mapping
	bctbx_sockaddr_remove_v4_mapping
	bctbx_sockaddr_to_ip_address
	bctbx_sockaddr_to_printable_ip_address
	bctbx_socket
	bctbx_socket_close
	bctbx_socket_error
	bctbx_socket_set_non_blocking
	bctbx_ssl_close_notify
	bctbx_ssl_config_defaults
	bctbx_ssl_config_free
	bctbx_ssl_config_get_private_config
	bctbx_ssl_config_new
	bctbx_ssl_config_set_authmode
	bctbx_ssl_config_set_ca_chain
	bctbx_ssl_config_set_callback_cli_cert
	bctbx_ssl_config_set_callback_verify
	bctbx_ssl_config_set_ciphersuites
	bctbx_ssl_config_set_crypto_library_config
	bctbx_ssl_config_set_dtls_srtp_protection_profiles
	bctbx_ssl_config_set_endpoint
	bctbx_ssl_config_set_own_cert
	bctbx_ssl_config_set_rng
	bctbx_ssl_config_set_transport
	bctbx_ssl_context_free
	bctbx_ssl_context_new
	bctbx_ssl_context_setup
	bctbx_ssl_get_ciphersuite
	bctbx_ssl_get_ciphersuite_id
	bctbx_ssl_get_dtls_srtp_key_material
	bctbx_ssl_get_dtls_srtp_protection_profile
	bctbx_ssl_get_implementation_type
	bctbx_ssl_get_peer_certificate
	bctbx_ssl_get_version
	bctbx_ssl_handshake
	bctbx_ssl_read
	bctbx_ssl_recv_callback
	bctbx_ssl_send_callback
	bctbx_ssl_session_reset
	bctbx_ssl_set_hostname
	bctbx_ssl_set_io_callbacks
	bctbx_ssl_set_mtu
	bctbx_ssl_write
	bctbx_str_to_uint32
	bctbx_str_to_uint64
	bctbx_str_to_uint8
	bctbx_strcasecmp
	bctbx_strcat_printf
	bctbx_strcat_vprintf
	bctbx_strcmp
	bctbx_strdup
	bctbx_strdup_printf
	bctbx_strdup_vprintf
	bctbx_strerror
	bctbx_string_to_wide_string
	bctbx_strndup
	bctbx_time_string_to_sec
	bctbx_timespec_add
	bctbx_timespec_compare
	bctbx_uint32_to_str
	bctbx_uint64_to_str
	bctbx_unescaped_string
	bctbx_unescaped_string_only_chars_in_rules
	bctbx_uninit_logger
	bctbx_utf8_to_locale
	bctbx_vfs_get_default
	bctbx_vfs_get_standard
	bctbx_vfs_set_default
	bctbx_vsocket_api_get_default
	bctbx_vsocket_api_get_standard
	bctbx_vsocket_api_set_default
	bctbx_write
	bctbx_x509_certificate_flags_to_string
	bctbx_x509_certificate_free
	bctbx_x509_certificate_generate_selfsigned
	bctbx_x509_certificate_get_der
	bctbx_x509_certificate_get_der_length
	bctbx_x509_certificate_get_fingerprint
	bctbx_x509_certificate_get_info_string
	bctbx_x509_certificate_get_signature_hash_function
	bctbx_x509_certificate_get_subject_dn
	bctbx_x509_certificate_get_subjects
	bctbx_x509_certificate_new
	bctbx_x509_certificate_parse
	bctbx_x509_certificate_parse_file
	bctbx_x509_certificate_parse_path
	bctbx_x509_certificate_remap_flag
	bctbx_x509_certificate_set_flag
	bctbx_x509_certificate_unset_flag
	bctbx_x509_certificates_chain_get_pem
	fprintf
	gai_strerrorA
	sscanf
