EXPORTS 
	??_R0?AU?$base_value_holder@E@details@soci@@@8 	 DATA
	??_R0?AV<lambda_2729ea627d046d894fd451ab504ba8ae>@@@8 	 DATA
	??_R0?AV<lambda_efc32634edcf6ab1e929fb35f3eb1ebf>@@@8 	 DATA
	??_R0?AV?$Lime@UC255@lime@@@lime@@@8 	 DATA
	??_R0?AV?$Lime@UC448@lime@@@lime@@@8 	 DATA
	??_R0?AV?$Signature@UC255@lime@@@lime@@@8 	 DATA
	??_R0?AV?$Signature@UC448@lime@@@lime@@@8 	 DATA
	??_R0?AV?$_Func_base@XHAEBV?$vector@EV?$allocator@E@std@@@std@@@std@@@8 	 DATA
	??_R0?AV?$_Func_base@XW4CallbackReturn@lime@@V?$basic_string@DU?$char_traits@D@std@@V?$allocator@D@2@@std@@@std@@@8 	 DATA
	??_R0?AV?$_Func_impl_no_alloc@V<lambda_2729ea627d046d894fd451ab504ba8ae>@@XHAEBV?$vector@EV?$allocator@E@std@@@std@@@std@@@8 	 DATA
	??_R0?AV?$_Func_impl_no_alloc@V<lambda_efc32634edcf6ab1e929fb35f3eb1ebf>@@XHAEBV?$vector@EV?$allocator@E@std@@@std@@@std@@@8 	 DATA
	??_R0?AV?$_Iosb@H@std@@@8 	 DATA
	??_R0?AV?$_Ref_count_obj2@$$CBV?$vector@EV?$allocator@E@std@@@std@@@std@@@8 	 DATA
	??_R0?AV?$_Ref_count_obj2@U?$callbackUserData@UC255@lime@@@lime@@@std@@@8 	 DATA
	??_R0?AV?$_Ref_count_obj2@U?$callbackUserData@UC448@lime@@@lime@@@std@@@8 	 DATA
	??_R0?AV?$_Ref_count_obj2@V?$DR@UC255@lime@@@lime@@@std@@@8 	 DATA
	??_R0?AV?$_Ref_count_obj2@V?$DR@UC448@lime@@@lime@@@std@@@8 	 DATA
	??_R0?AV?$_Ref_count_obj2@V?$Lime@UC255@lime@@@lime@@@std@@@8 	 DATA
	??_R0?AV?$_Ref_count_obj2@V?$Lime@UC448@lime@@@lime@@@std@@@8 	 DATA
	??_R0?AV?$_Ref_count_obj2@V?$bctbx_ECDH@UC255@lime@@@lime@@@std@@@8 	 DATA
	??_R0?AV?$_Ref_count_obj2@V?$bctbx_ECDH@UC448@lime@@@lime@@@std@@@8 	 DATA
	??_R0?AV?$_Ref_count_obj2@V?$bctbx_EDDSA@UC255@lime@@@lime@@@std@@@8 	 DATA
	??_R0?AV?$_Ref_count_obj2@V?$bctbx_EDDSA@UC448@lime@@@lime@@@std@@@8 	 DATA
	??_R0?AV?$_Ref_count_obj2@VDb@lime@@@std@@@8 	 DATA
	??_R0?AV?$_Ref_count_obj2@Vbctbx_RNG@lime@@@std@@@8 	 DATA
	??_R0?AV?$_Ref_count_obj2@Vrecursive_mutex@std@@@std@@@8 	 DATA
	??_R0?AV?$_Ref_count_obj2@W4CallbackReturn@lime@@@std@@@8 	 DATA
	??_R0?AV?$_Ref_count_obj2@_K@std@@@8 	 DATA
	??_R0?AV?$basic_ios@DU?$char_traits@D@std@@@std@@@8 	 DATA
	??_R0?AV?$basic_ostream@DU?$char_traits@D@std@@@std@@@8 	 DATA
	??_R0?AV?$basic_ostringstream@DU?$char_traits@D@std@@V?$allocator@D@2@@std@@@8 	 DATA
	??_R0?AV?$basic_streambuf@DU?$char_traits@D@std@@@std@@@8 	 DATA
	??_R0?AV?$basic_stringbuf@DU?$char_traits@D@std@@V?$allocator@D@2@@std@@@8 	 DATA
	??_R0?AV?$bctbx_ECDH@UC255@lime@@@lime@@@8 	 DATA
	??_R0?AV?$bctbx_ECDH@UC448@lime@@@lime@@@8 	 DATA
	??_R0?AV?$bctbx_EDDSA@UC255@lime@@@lime@@@8 	 DATA
	??_R0?AV?$bctbx_EDDSA@UC448@lime@@@lime@@@8 	 DATA
	??_R0?AV?$conversion_use_type@E@details@soci@@@8 	 DATA
	??_R0?AV?$enable_shared_from_this@V?$Lime@UC255@lime@@@lime@@@std@@@8 	 DATA
	??_R0?AV?$enable_shared_from_this@V?$Lime@UC448@lime@@@lime@@@std@@@8 	 DATA
	??_R0?AV?$into_type@G@details@soci@@@8 	 DATA
	??_R0?AV?$into_type@H@details@soci@@@8 	 DATA
	??_R0?AV?$into_type@I@details@soci@@@8 	 DATA
	??_R0?AV?$into_type@J@details@soci@@@8 	 DATA
	??_R0?AV?$into_type@V?$basic_string@DU?$char_traits@D@std@@V?$allocator@D@2@@std@@@details@soci@@@8 	 DATA
	??_R0?AV?$into_type@Vblob@soci@@@details@soci@@@8 	 DATA
	??_R0?AV?$into_type@Vrow@soci@@@details@soci@@@8 	 DATA
	??_R0?AV?$into_type@_J@details@soci@@@8 	 DATA
	??_R0?AV?$keyExchange@UC255@lime@@@lime@@@8 	 DATA
	??_R0?AV?$keyExchange@UC448@lime@@@lime@@@8 	 DATA
	??_R0?AV?$type_holder@H@details@soci@@@8 	 DATA
	??_R0?AV?$type_holder@V?$basic_string@DU?$char_traits@D@std@@V?$allocator@D@2@@std@@@details@soci@@@8 	 DATA
	??_R0?AV?$use_type@G@details@soci@@@8 	 DATA
	??_R0?AV?$use_type@H@details@soci@@@8 	 DATA
	??_R0?AV?$use_type@I@details@soci@@@8 	 DATA
	??_R0?AV?$use_type@J@details@soci@@@8 	 DATA
	??_R0?AV?$use_type@V?$basic_string@DU?$char_traits@D@std@@V?$allocator@D@2@@std@@@details@soci@@@8 	 DATA
	??_R0?AV?$use_type@Vblob@soci@@@details@soci@@@8 	 DATA
	??_R0?AV?$use_type@_J@details@soci@@@8 	 DATA
	??_R0?AVBctbxException@@@8 	 DATA
	??_R0?AVLimeGeneric@lime@@@8 	 DATA
	??_R0?AVRNG@lime@@@8 	 DATA
	??_R0?AV_Generic_error_category@std@@@8 	 DATA
	??_R0?AV_Ref_count_base@std@@@8 	 DATA
	??_R0?AV_System_error@std@@@8 	 DATA
	??_R0?AVbad_alloc@std@@@8 	 DATA
	??_R0?AVbad_array_new_length@std@@@8 	 DATA
	??_R0?AVbad_cast@std@@@8 	 DATA
	??_R0?AVbad_weak_ptr@std@@@8 	 DATA
	??_R0?AVbctbx_RNG@lime@@@8 	 DATA
	??_R0?AVerror_category@std@@@8 	 DATA
	??_R0?AVexception@std@@@8 	 DATA
	??_R0?AVholder@details@soci@@@8 	 DATA
	??_R0?AVinto_type_base@details@soci@@@8 	 DATA
	??_R0?AVios_base@std@@@8 	 DATA
	??_R0?AVruntime_error@std@@@8 	 DATA
	??_R0?AVsoci_error@soci@@@8 	 DATA
	??_R0?AVstandard_into_type@details@soci@@@8 	 DATA
	??_R0?AVstandard_use_type@details@soci@@@8 	 DATA
	??_R0?AVsystem_error@std@@@8 	 DATA
	??_R0?AVuse_type_base@details@soci@@@8 	 DATA
	?_Static@?1???$_Immortalize_memcpy_image@V_Generic_error_category@std@@@std@@YAAEBV_Generic_error_category@1@XZ@4U?$_Constexpr_immortalize_impl@V_Generic_error_category@std@@@1@A 	 DATA
	??$?0V?$_String_const_iterator@V?$_String_val@U?$_Simple_types@D@std@@@std@@@std@@$0A@@?$vector@EV?$allocator@E@std@@@std@@QEAA@V?$_String_const_iterator@V?$_String_val@U?$_Simple_types@D@std@@@std@@@1@0AEBV?$allocator@E@1@@Z
	??$?6$$BY01D@BctbxException@@QEAAAEAV0@AEAY01$$CBD@Z
	??$?6$$BY05D@BctbxException@@QEAAAEAV0@AEAY05$$CBD@Z
	??$?6$$BY06D@BctbxException@@QEAAAEAV0@AEAY06$$CBD@Z
	??$?6$$BY07D@BctbxException@@QEAAAEAV0@AEAY07$$CBD@Z
	??$?6$$BY0BA@D@BctbxException@@QEAAAEAV0@AEAY0BA@$$CBD@Z
	??$?6$$BY0BE@D@BctbxException@@QEAAAEAV0@AEAY0BE@$$CBD@Z
	??$?6$$BY0BH@D@BctbxException@@QEAAAEAV0@AEAY0BH@$$CBD@Z
	??$?6$$BY0BI@D@BctbxException@@QEAAAEAV0@AEAY0BI@$$CBD@Z
	??$?6$$BY0BJ@D@BctbxException@@QEAAAEAV0@AEAY0BJ@$$CBD@Z
	??$?6$$BY0BK@D@BctbxException@@QEAAAEAV0@AEAY0BK@$$CBD@Z
	??$?6$$BY0BL@D@BctbxException@@QEAAAEAV0@AEAY0BL@$$CBD@Z
	??$?6$$BY0BN@D@BctbxException@@QEAAAEAV0@AEAY0BN@$$CBD@Z
	??$?6$$BY0BO@D@BctbxException@@QEAAAEAV0@AEAY0BO@$$CBD@Z
	??$?6$$BY0CA@D@BctbxException@@QEAAAEAV0@AEAY0CA@$$CBD@Z
	??$?6$$BY0CD@D@BctbxException@@QEAAAEAV0@AEAY0CD@$$CBD@Z
	??$?6$$BY0CE@D@BctbxException@@QEAAAEAV0@AEAY0CE@$$CBD@Z
	??$?6$$BY0CI@D@BctbxException@@QEAAAEAV0@AEAY0CI@$$CBD@Z
	??$?6$$BY0CJ@D@BctbxException@@QEAAAEAV0@AEAY0CJ@$$CBD@Z
	??$?6$$BY0CK@D@BctbxException@@QEAAAEAV0@AEAY0CK@$$CBD@Z
	??$?6$$BY0CL@D@BctbxException@@QEAAAEAV0@AEAY0CL@$$CBD@Z
	??$?6$$BY0CL@D@session@soci@@QEAA?AVonce_temp_type@details@1@AEAY0CL@$$CBD@Z
	??$?6$$BY0CN@D@BctbxException@@QEAAAEAV0@AEAY0CN@$$CBD@Z
	??$?6$$BY0CO@D@BctbxException@@QEAAAEAV0@AEAY0CO@$$CBD@Z
	??$?6$$BY0CP@D@BctbxException@@QEAAAEAV0@AEAY0CP@$$CBD@Z
	??$?6$$BY0DB@D@BctbxException@@QEAAAEAV0@AEAY0DB@$$CBD@Z
	??$?6$$BY0DC@D@BctbxException@@QEAAAEAV0@AEAY0DC@$$CBD@Z
	??$?6$$BY0DD@D@BctbxException@@QEAAAEAV0@AEAY0DD@$$CBD@Z
	??$?6$$BY0DF@D@session@soci@@QEAA?AVonce_temp_type@details@1@AEAY0DF@$$CBD@Z
	??$?6$$BY0DG@D@session@soci@@QEAA?AVonce_temp_type@details@1@AEAY0DG@$$CBD@Z
	??$?6$$BY0DI@D@BctbxException@@QEAAAEAV0@AEAY0DI@$$CBD@Z
	??$?6$$BY0DI@D@prepare_type@details@soci@@QEAA?AVprepare_temp_type@12@AEAY0DI@$$CBD@Z
	??$?6$$BY0DJ@D@BctbxException@@QEAAAEAV0@AEAY0DJ@$$CBD@Z
	??$?6$$BY0EJ@D@BctbxException@@QEAAAEAV0@AEAY0EJ@$$CBD@Z
	??$?6$$BY0EM@D@BctbxException@@QEAAAEAV0@AEAY0EM@$$CBD@Z
	??$?6$$BY0EO@D@BctbxException@@QEAAAEAV0@AEAY0EO@$$CBD@Z
	??$?6$$BY0EP@D@BctbxException@@QEAAAEAV0@AEAY0EP@$$CBD@Z
	??$?6$$BY0FE@D@BctbxException@@QEAAAEAV0@AEAY0FE@$$CBD@Z
	??$?6$$BY0FG@D@BctbxException@@QEAAAEAV0@AEAY0FG@$$CBD@Z
	??$?6$$BY0FI@D@BctbxException@@QEAAAEAV0@AEAY0FI@$$CBD@Z
	??$?6$$BY0FL@D@BctbxException@@QEAAAEAV0@AEAY0FL@$$CBD@Z
	??$?6$$BY0GB@D@session@soci@@QEAA?AVonce_temp_type@details@1@AEAY0GB@$$CBD@Z
	??$?6$$BY0GC@D@BctbxException@@QEAAAEAV0@AEAY0GC@$$CBD@Z
	??$?6$$BY0L@D@BctbxException@@QEAAAEAV0@AEAY0L@$$CBD@Z
	??$?6$$BY0N@D@BctbxException@@QEAAAEAV0@AEAY0N@$$CBD@Z
	??$?6AEAY0BN@$$CBD@@YAAEAVpumpstream@@$$QEAV0@AEAY0BN@$$CBD@Z
	??$?6AEAY0DE@$$CBD@@YAAEAVpumpstream@@$$QEAV0@AEAY0DE@$$CBD@Z
	??$?6AEAY0EF@$$CBD@@YAAEAVpumpstream@@AEAV0@AEAY0EF@$$CBD@Z
	??$?6AEBV?$basic_string@DU?$char_traits@D@std@@V?$allocator@D@2@@std@@@@YAAEAVpumpstream@@AEAV0@AEBV?$basic_string@DU?$char_traits@D@std@@V?$allocator@D@2@@std@@@Z
	??$?6DU?$char_traits@D@std@@D@std@@YAAEAV?$basic_ostream@DU?$char_traits@D@std@@@0@AEAV10@AEBU?$_Fillobj@D@0@@Z
	??$?6DU?$char_traits@D@std@@V?$allocator@D@1@@std@@YAAEAV?$basic_ostream@DU?$char_traits@D@std@@@0@AEAV10@AEBV?$basic_string@DU?$char_traits@D@std@@V?$allocator@D@2@@0@@Z
	??$?6DU?$char_traits@D@std@@_J@std@@YAAEAV?$basic_ostream@DU?$char_traits@D@std@@@0@AEAV10@AEBU?$_Smanip@_J@0@@Z
	??$?6H@BctbxException@@QEAAAEAV0@AEBH@Z
	??$?6I@BctbxException@@QEAAAEAV0@AEBI@Z
	??$?6PEBD@BctbxException@@QEAAAEAV0@AEBQEBD@Z
	??$?6U?$char_traits@D@std@@@std@@YAAEAV?$basic_ostream@DU?$char_traits@D@std@@@0@AEAV10@D@Z
	??$?6U?$char_traits@D@std@@@std@@YAAEAV?$basic_ostream@DU?$char_traits@D@std@@@0@AEAV10@E@Z
	??$?6U?$char_traits@D@std@@@std@@YAAEAV?$basic_ostream@DU?$char_traits@D@std@@@0@AEAV10@PEBD@Z
	??$?6V?$basic_string@DU?$char_traits@D@std@@V?$allocator@D@2@@std@@@BctbxException@@QEAAAEAV0@AEBV?$basic_string@DU?$char_traits@D@std@@V?$allocator@D@2@@std@@@Z
	??$?8U?$callbackUserData@UC255@lime@@@lime@@@std@@YA_NAEBV?$shared_ptr@U?$callbackUserData@UC255@lime@@@lime@@@0@$$T@Z
	??$?8U?$callbackUserData@UC448@lime@@@lime@@@std@@YA_NAEBV?$shared_ptr@U?$callbackUserData@UC448@lime@@@lime@@@0@$$T@Z
	??$?8V?$DR@UC255@lime@@@lime@@@std@@YA_NAEBV?$shared_ptr@V?$DR@UC255@lime@@@lime@@@0@$$T@Z
	??$?8V?$DR@UC448@lime@@@lime@@@std@@YA_NAEBV?$shared_ptr@V?$DR@UC448@lime@@@lime@@@0@$$T@Z
	??$?9$$CBV?$vector@EV?$allocator@E@std@@@std@@@std@@YA_NAEBV?$shared_ptr@$$CBV?$vector@EV?$allocator@E@std@@@std@@@0@$$T@Z
	??$?9E$0CA@@std@@YA_NAEBV?$array@E$0CA@@0@0@Z
	??$?9E$0DI@@std@@YA_NAEBV?$array@E$0DI@@0@0@Z
	??$?9V?$DR@UC255@lime@@@lime@@@std@@YA_NAEBV?$shared_ptr@V?$DR@UC255@lime@@@lime@@@0@$$T@Z
	??$?9V?$DR@UC448@lime@@@lime@@@std@@YA_NAEBV?$shared_ptr@V?$DR@UC448@lime@@@lime@@@0@$$T@Z
	??$?CVDb@lime@@$0A@@?$shared_ptr@VDb@lime@@@std@@QEBAPEAVDb@lime@@XZ
	??$?QGX@once_temp_type@details@soci@@QEAAAEAV012@AEBU?$into_container@GX@12@@Z
	??$?QGX@once_temp_type@details@soci@@QEAAAEAV012@AEBU?$use_container@GX@12@@Z
	??$?QGX@prepare_temp_type@details@soci@@QEAAAEAV012@AEBU?$use_container@GX@12@@Z
	??$?QHX@once_temp_type@details@soci@@QEAAAEAV012@AEBU?$use_container@HX@12@@Z
	??$?QJX@once_temp_type@details@soci@@QEAAAEAV012@AEBU?$into_container@JX@12@@Z
	??$?QJX@once_temp_type@details@soci@@QEAAAEAV012@AEBU?$use_container@JX@12@@Z
	??$?QJX@prepare_temp_type@details@soci@@QEAAAEAV012@AEBU?$use_container@JX@12@@Z
	??$?QVblob@soci@@X@once_temp_type@details@soci@@QEAAAEAV012@AEBU?$use_container@Vblob@soci@@X@12@@Z
	??$?QVblob@soci@@X@prepare_temp_type@details@soci@@QEAAAEAV012@AEBU?$use_container@Vblob@soci@@X@12@@Z
	??$AEAD_decrypt@UAES256GCM@lime@@@lime@@YA_NQEBE_K01010101PEAE@Z
	??$AEAD_encrypt@UAES256GCM@lime@@@lime@@YAXQEBE_K010101PEAE12@Z
	??$HMAC@USHA512@lime@@@lime@@YAXQEBE_K01PEAE_K@Z
	??$HMAC_KDF@USHA512@lime@@V?$basic_string@DU?$char_traits@D@std@@V?$allocator@D@2@@std@@@lime@@YAXAEBV?$vector@EV?$allocator@E@std@@@std@@0AEBV?$basic_string@DU?$char_traits@D@std@@V?$allocator@D@2@@2@PEAE_K@Z
	??$HMAC_KDF@USHA512@lime@@V?$basic_string@DU?$char_traits@D@std@@V?$allocator@D@2@@std@@@lime@@YAXQEBE_K01AEBV?$basic_string@DU?$char_traits@D@std@@V?$allocator@D@2@@std@@PEAE_K@Z
	??$HMAC_KDF@USHA512@lime@@V?$vector@EV?$allocator@E@std@@@std@@@lime@@YAXAEBV?$vector@EV?$allocator@E@std@@@std@@00PEAE_K@Z
	??$HMAC_KDF@USHA512@lime@@V?$vector@EV?$allocator@E@std@@@std@@@lime@@YAXQEBE_K01AEBV?$vector@EV?$allocator@E@std@@@std@@PEAE_K@Z
	??$_Allocate_manually_vector_aligned@U_Default_allocate_traits@std@@@std@@YAPEAX_K@Z
	??$_Construct@PEBE@?$basic_string@DU?$char_traits@D@std@@V?$allocator@D@2@@std@@QEAAXPEBEQEBEUinput_iterator_tag@1@@Z
	??$_Copy_backward_memmove@PEAEPEAE@std@@YAPEAEPEAE00@Z
	??$_Copy_memmove@PEAEPEAE@std@@YAPEAEPEAE00@Z
	??$_Copy_memmove@PEAIPEAI@std@@YAPEAIPEAI00@Z
	??$_Copy_memmove@PEAPEAV?$shared_ptr@U?$callbackUserData@UC255@lime@@@lime@@@std@@PEAPEAV12@@std@@YAPEAPEAV?$shared_ptr@U?$callbackUserData@UC255@lime@@@lime@@@0@PEAPEAV10@00@Z
	??$_Copy_memmove@PEAPEAV?$shared_ptr@U?$callbackUserData@UC448@lime@@@lime@@@std@@PEAPEAV12@@std@@YAPEAPEAV?$shared_ptr@U?$callbackUserData@UC448@lime@@@lime@@@0@PEAPEAV10@00@Z
	??$_Copy_memmove@PEAPEAVinto_type_base@details@soci@@PEAPEAV123@@std@@YAPEAPEAVinto_type_base@details@soci@@PEAPEAV123@00@Z
	??$_Copy_memmove@PEAPEAVuse_type_base@details@soci@@PEAPEAV123@@std@@YAPEAPEAVuse_type_base@details@soci@@PEAPEAV123@00@Z
	??$_Copy_memmove@PEBDPEAE@std@@YAPEAEPEBD0PEAE@Z
	??$_Copy_memmove@PEBEPEAE@std@@YAPEAEPEBE0PEAE@Z
	??$_Destroy_range@V?$allocator@U?$RecipientInfos@UC255@lime@@@lime@@@std@@@std@@YAXPEAU?$RecipientInfos@UC255@lime@@@lime@@QEAU12@AEAV?$allocator@U?$RecipientInfos@UC255@lime@@@lime@@@0@@Z
	??$_Destroy_range@V?$allocator@U?$RecipientInfos@UC448@lime@@@lime@@@std@@@std@@YAXPEAU?$RecipientInfos@UC448@lime@@@lime@@QEAU12@AEAV?$allocator@U?$RecipientInfos@UC448@lime@@@lime@@@0@@Z
	??$_Destroy_range@V?$allocator@U?$X3DH_peerBundle@UC255@lime@@@lime@@@std@@@std@@YAXPEAU?$X3DH_peerBundle@UC255@lime@@@lime@@QEAU12@AEAV?$allocator@U?$X3DH_peerBundle@UC255@lime@@@lime@@@0@@Z
	??$_Destroy_range@V?$allocator@U?$X3DH_peerBundle@UC448@lime@@@lime@@@std@@@std@@YAXPEAU?$X3DH_peerBundle@UC448@lime@@@lime@@QEAU12@AEAV?$allocator@U?$X3DH_peerBundle@UC448@lime@@@lime@@@0@@Z
	??$_Destroy_range@V?$allocator@V?$basic_string@DU?$char_traits@D@std@@V?$allocator@D@2@@std@@@std@@@std@@YAXPEAV?$basic_string@DU?$char_traits@D@std@@V?$allocator@D@2@@0@QEAV10@AEAV?$allocator@V?$basic_string@DU?$char_traits@D@std@@V?$allocator@D@2@@std@@@0@@Z
	??$_Destroy_range@V?$allocator@V?$shared_ptr@V?$DR@UC255@lime@@@lime@@@std@@@std@@@std@@YAXPEAV?$shared_ptr@V?$DR@UC255@lime@@@lime@@@0@QEAV10@AEAV?$allocator@V?$shared_ptr@V?$DR@UC255@lime@@@lime@@@std@@@0@@Z
	??$_Destroy_range@V?$allocator@V?$shared_ptr@V?$DR@UC448@lime@@@lime@@@std@@@std@@@std@@YAXPEAV?$shared_ptr@V?$DR@UC448@lime@@@lime@@@0@QEAV10@AEAV?$allocator@V?$shared_ptr@V?$DR@UC448@lime@@@lime@@@std@@@0@@Z
	??$_Emplace_reallocate@$$CBV?$X@UC255@lime@@$0A@@lime@@@?$vector@V?$X@UC255@lime@@$0A@@lime@@V?$allocator@V?$X@UC255@lime@@$0A@@lime@@@std@@@std@@QEAAPEAV?$X@UC255@lime@@$0A@@lime@@QEAV23@$$QEBV23@@Z
	??$_Emplace_reallocate@$$CBV?$X@UC448@lime@@$0A@@lime@@@?$vector@V?$X@UC448@lime@@$0A@@lime@@V?$allocator@V?$X@UC448@lime@@$0A@@lime@@@std@@@std@@QEAAPEAV?$X@UC448@lime@@$0A@@lime@@QEAV23@$$QEBV23@@Z
	??$_Emplace_reallocate@AEBE@?$vector@EV?$allocator@E@std@@@std@@QEAAPEAEQEAEAEBE@Z
	??$_Emplace_reallocate@AEBI@?$vector@IV?$allocator@I@std@@@std@@QEAAPEAIQEAIAEBI@Z
	??$_Emplace_reallocate@AEBU?$ReceiverKeyChain@UC255@lime@@@lime@@@?$vector@U?$ReceiverKeyChain@UC255@lime@@@lime@@V?$allocator@U?$ReceiverKeyChain@UC255@lime@@@lime@@@std@@@std@@QEAAPEAU?$ReceiverKeyChain@UC255@lime@@@lime@@QEAU23@AEBU23@@Z
	??$_Emplace_reallocate@AEBU?$ReceiverKeyChain@UC448@lime@@@lime@@@?$vector@U?$ReceiverKeyChain@UC448@lime@@@lime@@V?$allocator@U?$ReceiverKeyChain@UC448@lime@@@lime@@@std@@@std@@QEAAPEAU?$ReceiverKeyChain@UC448@lime@@@lime@@QEAU23@AEBU23@@Z
	??$_Emplace_reallocate@AEBV?$X@UC255@lime@@$0A@@lime@@@?$vector@V?$X@UC255@lime@@$0A@@lime@@V?$allocator@V?$X@UC255@lime@@$0A@@lime@@@std@@@std@@QEAAPEAV?$X@UC255@lime@@$0A@@lime@@QEAV23@AEBV23@@Z
	??$_Emplace_reallocate@AEBV?$X@UC448@lime@@$0A@@lime@@@?$vector@V?$X@UC448@lime@@$0A@@lime@@V?$allocator@V?$X@UC448@lime@@$0A@@lime@@@std@@@std@@QEAAPEAV?$X@UC448@lime@@$0A@@lime@@QEAV23@AEBV23@@Z
	??$_Emplace_reallocate@AEBV?$basic_string@DU?$char_traits@D@std@@V?$allocator@D@2@@std@@@?$vector@U?$RecipientInfos@UC255@lime@@@lime@@V?$allocator@U?$RecipientInfos@UC255@lime@@@lime@@@std@@@std@@QEAAPEAU?$RecipientInfos@UC255@lime@@@lime@@QEAU23@AEBV?$basic_string@DU?$char_traits@D@std@@V?$allocator@D@2@@1@@Z
	??$_Emplace_reallocate@AEBV?$basic_string@DU?$char_traits@D@std@@V?$allocator@D@2@@std@@@?$vector@U?$RecipientInfos@UC448@lime@@@lime@@V?$allocator@U?$RecipientInfos@UC448@lime@@@lime@@@std@@@std@@QEAAPEAU?$RecipientInfos@UC448@lime@@@lime@@QEAU23@AEBV?$basic_string@DU?$char_traits@D@std@@V?$allocator@D@2@@1@@Z
	??$_Emplace_reallocate@AEBV?$basic_string@DU?$char_traits@D@std@@V?$allocator@D@2@@std@@@?$vector@V?$basic_string@DU?$char_traits@D@std@@V?$allocator@D@2@@std@@V?$allocator@V?$basic_string@DU?$char_traits@D@std@@V?$allocator@D@2@@std@@@2@@std@@QEAAPEAV?$basic_string@DU?$char_traits@D@std@@V?$allocator@D@2@@1@QEAV21@AEBV21@@Z
	??$_Emplace_reallocate@AEBV?$basic_string@DU?$char_traits@D@std@@V?$allocator@D@2@@std@@AEAV?$shared_ptr@V?$DR@UC255@lime@@@lime@@@2@@?$vector@U?$RecipientInfos@UC255@lime@@@lime@@V?$allocator@U?$RecipientInfos@UC255@lime@@@lime@@@std@@@std@@QEAAPEAU?$RecipientInfos@UC255@lime@@@lime@@QEAU23@AEBV?$basic_string@DU?$char_traits@D@std@@V?$allocator@D@2@@1@AEAV?$shared_ptr@V?$DR@UC255@lime@@@lime@@@1@@Z
	??$_Emplace_reallocate@AEBV?$basic_string@DU?$char_traits@D@std@@V?$allocator@D@2@@std@@AEAV?$shared_ptr@V?$DR@UC448@lime@@@lime@@@2@@?$vector@U?$RecipientInfos@UC448@lime@@@lime@@V?$allocator@U?$RecipientInfos@UC448@lime@@@lime@@@std@@@std@@QEAAPEAU?$RecipientInfos@UC448@lime@@@lime@@QEAU23@AEBV?$basic_string@DU?$char_traits@D@std@@V?$allocator@D@2@@1@AEAV?$shared_ptr@V?$DR@UC448@lime@@@lime@@@1@@Z
	??$_Emplace_reallocate@AEBV?$shared_ptr@V?$DR@UC255@lime@@@lime@@@std@@@?$vector@V?$shared_ptr@V?$DR@UC255@lime@@@lime@@@std@@V?$allocator@V?$shared_ptr@V?$DR@UC255@lime@@@lime@@@std@@@2@@std@@QEAAPEAV?$shared_ptr@V?$DR@UC255@lime@@@lime@@@1@QEAV21@AEBV21@@Z
	??$_Emplace_reallocate@AEBV?$shared_ptr@V?$DR@UC448@lime@@@lime@@@std@@@?$vector@V?$shared_ptr@V?$DR@UC448@lime@@@lime@@@std@@V?$allocator@V?$shared_ptr@V?$DR@UC448@lime@@@lime@@@std@@@2@@std@@QEAAPEAV?$shared_ptr@V?$DR@UC448@lime@@@lime@@@1@QEAV21@AEBV21@@Z
	??$_Emplace_reallocate@E@?$vector@EV?$allocator@E@std@@@std@@QEAAPEAEQEAE$$QEAE@Z
	??$_Emplace_reallocate@PEAVinto_type_base@details@soci@@@?$vector@PEAVinto_type_base@details@soci@@V?$allocator@PEAVinto_type_base@details@soci@@@std@@@std@@QEAAPEAPEAVinto_type_base@details@soci@@QEAPEAV234@$$QEAPEAV234@@Z
	??$_Emplace_reallocate@PEAVuse_type_base@details@soci@@@?$vector@PEAVuse_type_base@details@soci@@V?$allocator@PEAVuse_type_base@details@soci@@@std@@@std@@QEAAPEAPEAVuse_type_base@details@soci@@QEAPEAV234@$$QEAPEAV234@@Z
	??$_Emplace_reallocate@V?$basic_string@DU?$char_traits@D@std@@V?$allocator@D@2@@std@@@?$vector@U?$X3DH_peerBundle@UC255@lime@@@lime@@V?$allocator@U?$X3DH_peerBundle@UC255@lime@@@lime@@@std@@@std@@QEAAPEAU?$X3DH_peerBundle@UC255@lime@@@lime@@QEAU23@$$QEAV?$basic_string@DU?$char_traits@D@std@@V?$allocator@D@2@@1@@Z
	??$_Emplace_reallocate@V?$basic_string@DU?$char_traits@D@std@@V?$allocator@D@2@@std@@@?$vector@U?$X3DH_peerBundle@UC448@lime@@@lime@@V?$allocator@U?$X3DH_peerBundle@UC448@lime@@@lime@@@std@@@std@@QEAAPEAU?$X3DH_peerBundle@UC448@lime@@@lime@@QEAU23@$$QEAV?$basic_string@DU?$char_traits@D@std@@V?$allocator@D@2@@1@@Z
	??$_Emplace_reallocate@V?$basic_string@DU?$char_traits@D@std@@V?$allocator@D@2@@std@@AEBV?$_Vector_const_iterator@V?$_Vector_val@U?$_Simple_types@E@std@@@std@@@2@AEBV32@AEAIAEBV32@@?$vector@U?$X3DH_peerBundle@UC255@lime@@@lime@@V?$allocator@U?$X3DH_peerBundle@UC255@lime@@@lime@@@std@@@std@@QEAAPEAU?$X3DH_peerBundle@UC255@lime@@@lime@@QEAU23@$$QEAV?$basic_string@DU?$char_traits@D@std@@V?$allocator@D@2@@1@AEBV?$_Vector_const_iterator@V?$_Vector_val@U?$_Simple_types@E@std@@@std@@@1@2AEAI2@Z
	??$_Emplace_reallocate@V?$basic_string@DU?$char_traits@D@std@@V?$allocator@D@2@@std@@AEBV?$_Vector_const_iterator@V?$_Vector_val@U?$_Simple_types@E@std@@@std@@@2@AEBV32@AEAIAEBV32@@?$vector@U?$X3DH_peerBundle@UC448@lime@@@lime@@V?$allocator@U?$X3DH_peerBundle@UC448@lime@@@lime@@@std@@@std@@QEAAPEAU?$X3DH_peerBundle@UC448@lime@@@lime@@QEAU23@$$QEAV?$basic_string@DU?$char_traits@D@std@@V?$allocator@D@2@@1@AEBV?$_Vector_const_iterator@V?$_Vector_val@U?$_Simple_types@E@std@@@std@@@1@2AEAI2@Z
	??$_Emplace_reallocate@V?$basic_string@DU?$char_traits@D@std@@V?$allocator@D@2@@std@@AEBV?$_Vector_const_iterator@V?$_Vector_val@U?$_Simple_types@E@std@@@std@@@2@AEBV32@AEAIAEBV32@AEBV32@AEAI@?$vector@U?$X3DH_peerBundle@UC255@lime@@@lime@@V?$allocator@U?$X3DH_peerBundle@UC255@lime@@@lime@@@std@@@std@@QEAAPEAU?$X3DH_peerBundle@UC255@lime@@@lime@@QEAU23@$$QEAV?$basic_string@DU?$char_traits@D@std@@V?$allocator@D@2@@1@AEBV?$_Vector_const_iterator@V?$_Vector_val@U?$_Simple_types@E@std@@@std@@@1@2AEAI223@Z
	??$_Emplace_reallocate@V?$basic_string@DU?$char_traits@D@std@@V?$allocator@D@2@@std@@AEBV?$_Vector_const_iterator@V?$_Vector_val@U?$_Simple_types@E@std@@@std@@@2@AEBV32@AEAIAEBV32@AEBV32@AEAI@?$vector@U?$X3DH_peerBundle@UC448@lime@@@lime@@V?$allocator@U?$X3DH_peerBundle@UC448@lime@@@lime@@@std@@@std@@QEAAPEAU?$X3DH_peerBundle@UC448@lime@@@lime@@QEAU23@$$QEAV?$basic_string@DU?$char_traits@D@std@@V?$allocator@D@2@@1@AEBV?$_Vector_const_iterator@V?$_Vector_val@U?$_Simple_types@E@std@@@std@@@1@2AEAI223@Z
	??$_Emplace_reallocate@V?$shared_ptr@V?$DR@UC255@lime@@@lime@@@std@@@?$vector@V?$shared_ptr@V?$DR@UC255@lime@@@lime@@@std@@V?$allocator@V?$shared_ptr@V?$DR@UC255@lime@@@lime@@@std@@@2@@std@@QEAAPEAV?$shared_ptr@V?$DR@UC255@lime@@@lime@@@1@QEAV21@$$QEAV21@@Z
	??$_Emplace_reallocate@V?$shared_ptr@V?$DR@UC448@lime@@@lime@@@std@@@?$vector@V?$shared_ptr@V?$DR@UC448@lime@@@lime@@@std@@V?$allocator@V?$shared_ptr@V?$DR@UC448@lime@@@lime@@@std@@@2@@std@@QEAAPEAV?$shared_ptr@V?$DR@UC448@lime@@@lime@@@1@QEAV21@$$QEAV21@@Z
	??$_Erase_tree@V?$allocator@U?$_Tree_node@IPEAX@std@@@std@@@?$_Tree_val@U?$_Tree_simple_types@I@std@@@std@@QEAAXAEAV?$allocator@U?$_Tree_node@IPEAX@std@@@1@PEAU?$_Tree_node@IPEAX@1@@Z
	??$_Fill_memset@PEAEE@std@@YAXPEAEE_K@Z
	??$_Find_last@V?$basic_string@DU?$char_traits@D@std@@V?$allocator@D@2@@std@@@?$_Hash@V?$_Umap_traits@V?$basic_string@DU?$char_traits@D@std@@V?$allocator@D@2@@std@@V?$shared_ptr@V?$DR@UC255@lime@@@lime@@@2@V?$_Uhash_compare@V?$basic_string@DU?$char_traits@D@std@@V?$allocator@D@2@@std@@U?$hash@V?$basic_string@DU?$char_traits@D@std@@V?$allocator@D@2@@std@@@2@U?$equal_to@V?$basic_string@DU?$char_traits@D@std@@V?$allocator@D@2@@std@@@2@@2@V?$allocator@U?$pair@$$CBV?$basic_string@DU?$char_traits@D@std@@V?$allocator@D@2@@std@@V?$shared_ptr@V?$DR@UC255@lime@@@lime@@@2@@std@@@2@$0A@@std@@@std@@IEBA?AU?$_Hash_find_last_result@PEAU?$_List_node@U?$pair@$$CBV?$basic_string@DU?$char_traits@D@std@@V?$allocator@D@2@@std@@V?$shared_ptr@V?$DR@UC255@lime@@@lime@@@2@@std@@PEAX@std@@@1@AEBV?$basic_string@DU?$char_traits@D@std@@V?$allocator@D@2@@1@_K@Z
	??$_Find_last@V?$basic_string@DU?$char_traits@D@std@@V?$allocator@D@2@@std@@@?$_Hash@V?$_Umap_traits@V?$basic_string@DU?$char_traits@D@std@@V?$allocator@D@2@@std@@V?$shared_ptr@V?$DR@UC448@lime@@@lime@@@2@V?$_Uhash_compare@V?$basic_string@DU?$char_traits@D@std@@V?$allocator@D@2@@std@@U?$hash@V?$basic_string@DU?$char_traits@D@std@@V?$allocator@D@2@@std@@@2@U?$equal_to@V?$basic_string@DU?$char_traits@D@std@@V?$allocator@D@2@@std@@@2@@2@V?$allocator@U?$pair@$$CBV?$basic_string@DU?$char_traits@D@std@@V?$allocator@D@2@@std@@V?$shared_ptr@V?$DR@UC448@lime@@@lime@@@2@@std@@@2@$0A@@std@@@std@@IEBA?AU?$_Hash_find_last_result@PEAU?$_List_node@U?$pair@$$CBV?$basic_string@DU?$char_traits@D@std@@V?$allocator@D@2@@std@@V?$shared_ptr@V?$DR@UC448@lime@@@lime@@@2@@std@@PEAX@std@@@1@AEBV?$basic_string@DU?$char_traits@D@std@@V?$allocator@D@2@@1@_K@Z
	??$_Find_last@V?$basic_string@DU?$char_traits@D@std@@V?$allocator@D@2@@std@@@?$_Hash@V?$_Umap_traits@V?$basic_string@DU?$char_traits@D@std@@V?$allocator@D@2@@std@@V?$shared_ptr@VLimeGeneric@lime@@@2@V?$_Uhash_compare@V?$basic_string@DU?$char_traits@D@std@@V?$allocator@D@2@@std@@U?$hash@V?$basic_string@DU?$char_traits@D@std@@V?$allocator@D@2@@std@@@2@U?$equal_to@V?$basic_string@DU?$char_traits@D@std@@V?$allocator@D@2@@std@@@2@@2@V?$allocator@U?$pair@$$CBV?$basic_string@DU?$char_traits@D@std@@V?$allocator@D@2@@std@@V?$shared_ptr@VLimeGeneric@lime@@@2@@std@@@2@$0A@@std@@@std@@IEBA?AU?$_Hash_find_last_result@PEAU?$_List_node@U?$pair@$$CBV?$basic_string@DU?$char_traits@D@std@@V?$allocator@D@2@@std@@V?$shared_ptr@VLimeGeneric@lime@@@2@@std@@PEAX@std@@@1@AEBV?$basic_string@DU?$char_traits@D@std@@V?$allocator@D@2@@1@_K@Z
	??$_Fnv1a_append_value@G@std@@YA_K_KAEBG@Z
	??$_Free_non_head@V?$allocator@U?$_List_node@U?$pair@$$CBV?$basic_string@DU?$char_traits@D@std@@V?$allocator@D@2@@std@@V?$shared_ptr@V?$DR@UC255@lime@@@lime@@@2@@std@@PEAX@std@@@std@@@?$_List_node@U?$pair@$$CBV?$basic_string@DU?$char_traits@D@std@@V?$allocator@D@2@@std@@V?$shared_ptr@V?$DR@UC255@lime@@@lime@@@2@@std@@PEAX@std@@SAXAEAV?$allocator@U?$_List_node@U?$pair@$$CBV?$basic_string@DU?$char_traits@D@std@@V?$allocator@D@2@@std@@V?$shared_ptr@V?$DR@UC255@lime@@@lime@@@2@@std@@PEAX@std@@@1@PEAU01@@Z
	??$_Free_non_head@V?$allocator@U?$_List_node@U?$pair@$$CBV?$basic_string@DU?$char_traits@D@std@@V?$allocator@D@2@@std@@V?$shared_ptr@V?$DR@UC448@lime@@@lime@@@2@@std@@PEAX@std@@@std@@@?$_List_node@U?$pair@$$CBV?$basic_string@DU?$char_traits@D@std@@V?$allocator@D@2@@std@@V?$shared_ptr@V?$DR@UC448@lime@@@lime@@@2@@std@@PEAX@std@@SAXAEAV?$allocator@U?$_List_node@U?$pair@$$CBV?$basic_string@DU?$char_traits@D@std@@V?$allocator@D@2@@std@@V?$shared_ptr@V?$DR@UC448@lime@@@lime@@@2@@std@@PEAX@std@@@1@PEAU01@@Z
	??$_Getvals@_W@?$time_get@DV?$istreambuf_iterator@DU?$char_traits@D@std@@@std@@@std@@IEAAX_WAEBV_Locinfo@1@@Z
	??$_Getvals@_W@?$time_get@_WV?$istreambuf_iterator@_WU?$char_traits@_W@std@@@std@@@std@@IEAAX_WAEBV_Locinfo@1@@Z
	??$_Hash_array_representation@D@std@@YA_KQEBD_K@Z
	??$_Hash_representation@G@std@@YA_KAEBG@Z
	??$_Immortalize_memcpy_image@V_Generic_error_category@std@@@std@@YAAEBV_Generic_error_category@0@XZ
	??$_Insert_range@PEBD@?$vector@EV?$allocator@E@std@@@std@@AEAAXV?$_Vector_const_iterator@V?$_Vector_val@U?$_Simple_types@E@std@@@std@@@1@PEBD1Uforward_iterator_tag@1@@Z
	??$_Insert_range@PEBE@?$vector@EV?$allocator@E@std@@@std@@AEAAXV?$_Vector_const_iterator@V?$_Vector_val@U?$_Simple_types@E@std@@@std@@@1@PEBE1Uforward_iterator_tag@1@@Z
	??$_Insert_string@DU?$char_traits@D@std@@_K@std@@YAAEAV?$basic_ostream@DU?$char_traits@D@std@@@0@AEAV10@QEBD_K@Z
	??$_Integral_to_string@DH@std@@YA?AV?$basic_string@DU?$char_traits@D@std@@V?$allocator@D@2@@0@H@Z
	??$_Maklocstr@D@std@@YAPEADPEBDPEADAEBU_Cvtvec@@@Z
	??$_Memcmp_ranges@PEBEPEBE@std@@YAHPEBE00@Z
	??$_Move_unchecked@PEAEPEAE@std@@YAPEAEPEAE00@Z
	??$_Reallocate_grow_by@V<lambda_65e615be2a453ca0576c979606f46740>@@PEBD_K@?$basic_string@DU?$char_traits@D@std@@V?$allocator@D@2@@std@@AEAAAEAV01@_KV<lambda_65e615be2a453ca0576c979606f46740>@@PEBD_K@Z
	??$_Resize_reallocate@U_Value_init_tag@std@@@?$vector@EV?$allocator@E@std@@@std@@AEAAX_KAEBU_Value_init_tag@1@@Z
	??$_Resize_reallocate@U_Value_init_tag@std@@@?$vector@V?$basic_string@DU?$char_traits@D@std@@V?$allocator@D@2@@std@@V?$allocator@V?$basic_string@DU?$char_traits@D@std@@V?$allocator@D@2@@std@@@2@@std@@AEAAX_KAEBU_Value_init_tag@1@@Z
	??$_Test_callable@V<lambda_2729ea627d046d894fd451ab504ba8ae>@@@std@@YA_NAEBV<lambda_2729ea627d046d894fd451ab504ba8ae>@@@Z
	??$_Test_callable@V<lambda_efc32634edcf6ab1e929fb35f3eb1ebf>@@@std@@YA_NAEBV<lambda_efc32634edcf6ab1e929fb35f3eb1ebf>@@@Z
	??$_Try_emplace@AEBG$$V@?$_Hash@V?$_Umap_traits@GU?$sBuffer@$0DA@@lime@@V?$_Uhash_compare@GU?$hash@G@std@@U?$equal_to@G@2@@std@@V?$allocator@U?$pair@$$CBGU?$sBuffer@$0DA@@lime@@@std@@@4@$0A@@std@@@std@@IEAA?AU?$pair@PEAU?$_List_node@U?$pair@$$CBGU?$sBuffer@$0DA@@lime@@@std@@PEAX@std@@_N@1@AEBG@Z
	??$_Try_emplace@AEBV?$basic_string@DU?$char_traits@D@std@@V?$allocator@D@2@@std@@$$V@?$_Hash@V?$_Umap_traits@V?$basic_string@DU?$char_traits@D@std@@V?$allocator@D@2@@std@@V?$shared_ptr@V?$DR@UC255@lime@@@lime@@@2@V?$_Uhash_compare@V?$basic_string@DU?$char_traits@D@std@@V?$allocator@D@2@@std@@U?$hash@V?$basic_string@DU?$char_traits@D@std@@V?$allocator@D@2@@std@@@2@U?$equal_to@V?$basic_string@DU?$char_traits@D@std@@V?$allocator@D@2@@std@@@2@@2@V?$allocator@U?$pair@$$CBV?$basic_string@DU?$char_traits@D@std@@V?$allocator@D@2@@std@@V?$shared_ptr@V?$DR@UC255@lime@@@lime@@@2@@std@@@2@$0A@@std@@@std@@IEAA?AU?$pair@PEAU?$_List_node@U?$pair@$$CBV?$basic_string@DU?$char_traits@D@std@@V?$allocator@D@2@@std@@V?$shared_ptr@V?$DR@UC255@lime@@@lime@@@2@@std@@PEAX@std@@_N@1@AEBV?$basic_string@DU?$char_traits@D@std@@V?$allocator@D@2@@1@@Z
	??$_Try_emplace@AEBV?$basic_string@DU?$char_traits@D@std@@V?$allocator@D@2@@std@@$$V@?$_Hash@V?$_Umap_traits@V?$basic_string@DU?$char_traits@D@std@@V?$allocator@D@2@@std@@V?$shared_ptr@V?$DR@UC448@lime@@@lime@@@2@V?$_Uhash_compare@V?$basic_string@DU?$char_traits@D@std@@V?$allocator@D@2@@std@@U?$hash@V?$basic_string@DU?$char_traits@D@std@@V?$allocator@D@2@@std@@@2@U?$equal_to@V?$basic_string@DU?$char_traits@D@std@@V?$allocator@D@2@@std@@@2@@2@V?$allocator@U?$pair@$$CBV?$basic_string@DU?$char_traits@D@std@@V?$allocator@D@2@@std@@V?$shared_ptr@V?$DR@UC448@lime@@@lime@@@2@@std@@@2@$0A@@std@@@std@@IEAA?AU?$pair@PEAU?$_List_node@U?$pair@$$CBV?$basic_string@DU?$char_traits@D@std@@V?$allocator@D@2@@std@@V?$shared_ptr@V?$DR@UC448@lime@@@lime@@@2@@std@@PEAX@std@@_N@1@AEBV?$basic_string@DU?$char_traits@D@std@@V?$allocator@D@2@@1@@Z
	??$_Try_emplace@AEBV?$basic_string@DU?$char_traits@D@std@@V?$allocator@D@2@@std@@$$V@?$_Hash@V?$_Umap_traits@V?$basic_string@DU?$char_traits@D@std@@V?$allocator@D@2@@std@@V?$shared_ptr@VLimeGeneric@lime@@@2@V?$_Uhash_compare@V?$basic_string@DU?$char_traits@D@std@@V?$allocator@D@2@@std@@U?$hash@V?$basic_string@DU?$char_traits@D@std@@V?$allocator@D@2@@std@@@2@U?$equal_to@V?$basic_string@DU?$char_traits@D@std@@V?$allocator@D@2@@std@@@2@@2@V?$allocator@U?$pair@$$CBV?$basic_string@DU?$char_traits@D@std@@V?$allocator@D@2@@std@@V?$shared_ptr@VLimeGeneric@lime@@@2@@std@@@2@$0A@@std@@@std@@IEAA?AU?$pair@PEAU?$_List_node@U?$pair@$$CBV?$basic_string@DU?$char_traits@D@std@@V?$allocator@D@2@@std@@V?$shared_ptr@VLimeGeneric@lime@@@2@@std@@PEAX@std@@_N@1@AEBV?$basic_string@DU?$char_traits@D@std@@V?$allocator@D@2@@1@@Z
	??$_UIntegral_to_buff@DI@std@@YAPEADPEADI@Z
	??$_UIntegral_to_string@DI@std@@YA?AV?$basic_string@DU?$char_traits@D@std@@V?$allocator@D@2@@0@I@Z
	??$_Uninitialized_move@PEAV?$basic_string@DU?$char_traits@D@std@@V?$allocator@D@2@@std@@V?$allocator@V?$basic_string@DU?$char_traits@D@std@@V?$allocator@D@2@@std@@@2@@std@@YAPEAV?$basic_string@DU?$char_traits@D@std@@V?$allocator@D@2@@0@QEAV10@0PEAV10@AEAV?$allocator@V?$basic_string@DU?$char_traits@D@std@@V?$allocator@D@2@@std@@@0@@Z
	??$_Uninitialized_value_construct_n_unchecked1@PEAPEAV?$shared_ptr@U?$callbackUserData@UC255@lime@@@lime@@@std@@_K@std@@YAPEAPEAV?$shared_ptr@U?$callbackUserData@UC255@lime@@@lime@@@0@PEAPEAV10@_K@Z
	??$_Uninitialized_value_construct_n_unchecked1@PEAPEAV?$shared_ptr@U?$callbackUserData@UC448@lime@@@lime@@@std@@_K@std@@YAPEAPEAV?$shared_ptr@U?$callbackUserData@UC448@lime@@@lime@@@0@PEAPEAV10@_K@Z
	??$_Zero_range@PEAE@std@@YAPEAEQEAE0@Z
	??$_Zero_range@PEAPEAV?$shared_ptr@U?$callbackUserData@UC255@lime@@@lime@@@std@@@std@@YAPEAPEAV?$shared_ptr@U?$callbackUserData@UC255@lime@@@lime@@@0@QEAPEAV10@0@Z
	??$_Zero_range@PEAPEAV?$shared_ptr@U?$callbackUserData@UC448@lime@@@lime@@@std@@@std@@YAPEAPEAV?$shared_ptr@U?$callbackUserData@UC448@lime@@@lime@@@0@QEAPEAV10@0@Z
	??$assign@V?$_Vector_const_iterator@V?$_Vector_val@U?$_Simple_types@E@std@@@std@@@std@@$0A@@?$vector@EV?$allocator@E@std@@@std@@QEAAXV?$_Vector_const_iterator@V?$_Vector_val@U?$_Simple_types@E@std@@@std@@@1@0@Z
	??$bctbx_ECDHInit@UC255@lime@@@lime@@YAPEAUbctbx_ECDHContext_struct@@XZ
	??$bctbx_ECDHInit@UC448@lime@@@lime@@YAPEAUbctbx_ECDHContext_struct@@XZ
	??$bctbx_EDDSAInit@UC255@lime@@@lime@@YAPEAUbctbx_EDDSAContext_struct@@XZ
	??$bctbx_EDDSAInit@UC448@lime@@@lime@@YAPEAUbctbx_EDDSAContext_struct@@XZ
	??$buildMessage_X3DHinit@UC255@lime@@@double_ratchet_protocol@lime@@YAXAEAV?$vector@EV?$allocator@E@std@@@std@@AEBV?$DSA@UC255@lime@@$0A@@1@AEBV?$X@UC255@lime@@$0A@@1@II_N@Z
	??$buildMessage_X3DHinit@UC448@lime@@@double_ratchet_protocol@lime@@YAXAEAV?$vector@EV?$allocator@E@std@@@std@@AEBV?$DSA@UC448@lime@@$0A@@1@AEBV?$X@UC448@lime@@$0A@@1@II_N@Z
	??$buildMessage_deleteUser@UC255@lime@@@x3dh_protocol@lime@@YAXAEAV?$vector@EV?$allocator@E@std@@@std@@@Z
	??$buildMessage_deleteUser@UC448@lime@@@x3dh_protocol@lime@@YAXAEAV?$vector@EV?$allocator@E@std@@@std@@@Z
	??$buildMessage_getPeerBundles@UC255@lime@@@x3dh_protocol@lime@@YAXAEAV?$vector@EV?$allocator@E@std@@@std@@AEAV?$vector@V?$basic_string@DU?$char_traits@D@std@@V?$allocator@D@2@@std@@V?$allocator@V?$basic_string@DU?$char_traits@D@std@@V?$allocator@D@2@@std@@@2@@3@@Z
	??$buildMessage_getPeerBundles@UC448@lime@@@x3dh_protocol@lime@@YAXAEAV?$vector@EV?$allocator@E@std@@@std@@AEAV?$vector@V?$basic_string@DU?$char_traits@D@std@@V?$allocator@D@2@@std@@V?$allocator@V?$basic_string@DU?$char_traits@D@std@@V?$allocator@D@2@@std@@@2@@3@@Z
	??$buildMessage_getSelfOPks@UC255@lime@@@x3dh_protocol@lime@@YAXAEAV?$vector@EV?$allocator@E@std@@@std@@@Z
	??$buildMessage_getSelfOPks@UC448@lime@@@x3dh_protocol@lime@@YAXAEAV?$vector@EV?$allocator@E@std@@@std@@@Z
	??$buildMessage_header@UC255@lime@@@double_ratchet_protocol@lime@@YAXAEAV?$vector@EV?$allocator@E@std@@@std@@GGAEBV?$X@UC255@lime@@$0A@@1@V23@_N@Z
	??$buildMessage_header@UC448@lime@@@double_ratchet_protocol@lime@@YAXAEAV?$vector@EV?$allocator@E@std@@@std@@GGAEBV?$X@UC448@lime@@$0A@@1@V23@_N@Z
	??$buildMessage_publishOPks@UC255@lime@@@x3dh_protocol@lime@@YAXAEAV?$vector@EV?$allocator@E@std@@@std@@AEBV?$vector@V?$X@UC255@lime@@$0A@@lime@@V?$allocator@V?$X@UC255@lime@@$0A@@lime@@@std@@@3@AEBV?$vector@IV?$allocator@I@std@@@3@@Z
	??$buildMessage_publishOPks@UC448@lime@@@x3dh_protocol@lime@@YAXAEAV?$vector@EV?$allocator@E@std@@@std@@AEBV?$vector@V?$X@UC448@lime@@$0A@@lime@@V?$allocator@V?$X@UC448@lime@@$0A@@lime@@@std@@@3@AEBV?$vector@IV?$allocator@I@std@@@3@@Z
	??$buildMessage_publishSPk@UC255@lime@@@x3dh_protocol@lime@@YAXAEAV?$vector@EV?$allocator@E@std@@@std@@AEBV?$X@UC255@lime@@$0A@@1@AEBV?$DSA@UC255@lime@@$01@1@I@Z
	??$buildMessage_publishSPk@UC448@lime@@@x3dh_protocol@lime@@YAXAEAV?$vector@EV?$allocator@E@std@@@std@@AEBV?$X@UC448@lime@@$0A@@1@AEBV?$DSA@UC448@lime@@$01@1@I@Z
	??$buildMessage_registerUser@UC255@lime@@@x3dh_protocol@lime@@YAXAEAV?$vector@EV?$allocator@E@std@@@std@@AEBV?$DSA@UC255@lime@@$0A@@1@AEBV?$X@UC255@lime@@$0A@@1@AEBV?$DSA@UC255@lime@@$01@1@IAEBV?$vector@V?$X@UC255@lime@@$0A@@lime@@V?$allocator@V?$X@UC255@lime@@$0A@@lime@@@std@@@3@AEBV?$vector@IV?$allocator@I@std@@@3@@Z
	??$buildMessage_registerUser@UC448@lime@@@x3dh_protocol@lime@@YAXAEAV?$vector@EV?$allocator@E@std@@@std@@AEBV?$DSA@UC448@lime@@$0A@@1@AEBV?$X@UC448@lime@@$0A@@1@AEBV?$DSA@UC448@lime@@$01@1@IAEBV?$vector@V?$X@UC448@lime@@$0A@@lime@@V?$allocator@V?$X@UC448@lime@@$0A@@lime@@@std@@@3@AEBV?$vector@IV?$allocator@I@std@@@3@@Z
	??$check_peerDevice@UC255@lime@@@Db@lime@@QEAAJAEBV?$basic_string@DU?$char_traits@D@std@@V?$allocator@D@2@@std@@AEBV?$DSA@UC255@lime@@$0A@@1@_N@Z
	??$check_peerDevice@UC448@lime@@@Db@lime@@QEAAJAEBV?$basic_string@DU?$char_traits@D@std@@V?$allocator@D@2@@std@@AEBV?$DSA@UC448@lime@@$0A@@1@_N@Z
	??$construct@U?$RecipientInfos@UC255@lime@@@lime@@AEBV?$basic_string@DU?$char_traits@D@std@@V?$allocator@D@2@@std@@AEAV?$shared_ptr@V?$DR@UC255@lime@@@lime@@@4@@?$_Default_allocator_traits@V?$allocator@U?$RecipientInfos@UC255@lime@@@lime@@@std@@@std@@SAXAEAV?$allocator@U?$RecipientInfos@UC255@lime@@@lime@@@1@QEAU?$RecipientInfos@UC255@lime@@@lime@@AEBV?$basic_string@DU?$char_traits@D@std@@V?$allocator@D@2@@1@AEAV?$shared_ptr@V?$DR@UC255@lime@@@lime@@@1@@Z
	??$construct@U?$RecipientInfos@UC448@lime@@@lime@@AEBV?$basic_string@DU?$char_traits@D@std@@V?$allocator@D@2@@std@@AEAV?$shared_ptr@V?$DR@UC448@lime@@@lime@@@4@@?$_Default_allocator_traits@V?$allocator@U?$RecipientInfos@UC448@lime@@@lime@@@std@@@std@@SAXAEAV?$allocator@U?$RecipientInfos@UC448@lime@@@lime@@@1@QEAU?$RecipientInfos@UC448@lime@@@lime@@AEBV?$basic_string@DU?$char_traits@D@std@@V?$allocator@D@2@@1@AEAV?$shared_ptr@V?$DR@UC448@lime@@@lime@@@1@@Z
	??$construct@U?$X3DH_peerBundle@UC255@lime@@@lime@@V?$basic_string@DU?$char_traits@D@std@@V?$allocator@D@2@@std@@AEBV?$_Vector_const_iterator@V?$_Vector_val@U?$_Simple_types@E@std@@@std@@@4@AEBV54@AEAIAEBV54@AEBV54@AEAI@?$_Default_allocator_traits@V?$allocator@U?$X3DH_peerBundle@UC255@lime@@@lime@@@std@@@std@@SAXAEAV?$allocator@U?$X3DH_peerBundle@UC255@lime@@@lime@@@1@QEAU?$X3DH_peerBundle@UC255@lime@@@lime@@$$QEAV?$basic_string@DU?$char_traits@D@std@@V?$allocator@D@2@@1@AEBV?$_Vector_const_iterator@V?$_Vector_val@U?$_Simple_types@E@std@@@std@@@1@3AEAI334@Z
	??$construct@U?$X3DH_peerBundle@UC448@lime@@@lime@@V?$basic_string@DU?$char_traits@D@std@@V?$allocator@D@2@@std@@AEBV?$_Vector_const_iterator@V?$_Vector_val@U?$_Simple_types@E@std@@@std@@@4@AEBV54@AEAIAEBV54@AEBV54@AEAI@?$_Default_allocator_traits@V?$allocator@U?$X3DH_peerBundle@UC448@lime@@@lime@@@std@@@std@@SAXAEAV?$allocator@U?$X3DH_peerBundle@UC448@lime@@@lime@@@1@QEAU?$X3DH_peerBundle@UC448@lime@@@lime@@$$QEAV?$basic_string@DU?$char_traits@D@std@@V?$allocator@D@2@@1@AEBV?$_Vector_const_iterator@V?$_Vector_val@U?$_Simple_types@E@std@@@std@@@1@3AEAI334@Z
	??$decryptMessage@UC255@lime@@@lime@@YA?AV?$shared_ptr@V?$DR@UC255@lime@@@lime@@@std@@AEBV?$basic_string@DU?$char_traits@D@std@@V?$allocator@D@2@@2@0AEBV?$vector@EV?$allocator@E@std@@@2@AEAV?$vector@V?$shared_ptr@V?$DR@UC255@lime@@@lime@@@std@@V?$allocator@V?$shared_ptr@V?$DR@UC255@lime@@@lime@@@std@@@2@@2@11AEAV42@@Z
	??$decryptMessage@UC448@lime@@@lime@@YA?AV?$shared_ptr@V?$DR@UC448@lime@@@lime@@@std@@AEBV?$basic_string@DU?$char_traits@D@std@@V?$allocator@D@2@@2@0AEBV?$vector@EV?$allocator@E@std@@@2@AEAV?$vector@V?$shared_ptr@V?$DR@UC448@lime@@@lime@@@std@@V?$allocator@V?$shared_ptr@V?$DR@UC448@lime@@@lime@@@std@@@2@@2@11AEAV42@@Z
	??$destroy@U?$pair@$$CBV?$basic_string@DU?$char_traits@D@std@@V?$allocator@D@2@@std@@V?$shared_ptr@V?$DR@UC255@lime@@@lime@@@2@@std@@@?$_Default_allocator_traits@V?$allocator@U?$_List_node@U?$pair@$$CBV?$basic_string@DU?$char_traits@D@std@@V?$allocator@D@2@@std@@V?$shared_ptr@V?$DR@UC255@lime@@@lime@@@2@@std@@PEAX@std@@@std@@@std@@SAXAEAV?$allocator@U?$_List_node@U?$pair@$$CBV?$basic_string@DU?$char_traits@D@std@@V?$allocator@D@2@@std@@V?$shared_ptr@V?$DR@UC255@lime@@@lime@@@2@@std@@PEAX@std@@@1@QEAU?$pair@$$CBV?$basic_string@DU?$char_traits@D@std@@V?$allocator@D@2@@std@@V?$shared_ptr@V?$DR@UC255@lime@@@lime@@@2@@1@@Z
	??$destroy@U?$pair@$$CBV?$basic_string@DU?$char_traits@D@std@@V?$allocator@D@2@@std@@V?$shared_ptr@V?$DR@UC448@lime@@@lime@@@2@@std@@@?$_Default_allocator_traits@V?$allocator@U?$_List_node@U?$pair@$$CBV?$basic_string@DU?$char_traits@D@std@@V?$allocator@D@2@@std@@V?$shared_ptr@V?$DR@UC448@lime@@@lime@@@2@@std@@PEAX@std@@@std@@@std@@SAXAEAV?$allocator@U?$_List_node@U?$pair@$$CBV?$basic_string@DU?$char_traits@D@std@@V?$allocator@D@2@@std@@V?$shared_ptr@V?$DR@UC448@lime@@@lime@@@2@@std@@PEAX@std@@@1@QEAU?$pair@$$CBV?$basic_string@DU?$char_traits@D@std@@V?$allocator@D@2@@std@@V?$shared_ptr@V?$DR@UC448@lime@@@lime@@@2@@1@@Z
	??$destroy@V?$basic_string@DU?$char_traits@D@std@@V?$allocator@D@2@@std@@@?$_Default_allocator_traits@V?$allocator@U?$_List_node@V?$basic_string@DU?$char_traits@D@std@@V?$allocator@D@2@@std@@PEAX@std@@@std@@@std@@SAXAEAV?$allocator@U?$_List_node@V?$basic_string@DU?$char_traits@D@std@@V?$allocator@D@2@@std@@PEAX@std@@@1@QEAV?$basic_string@DU?$char_traits@D@std@@V?$allocator@D@2@@1@@Z
	??$do_into@G@details@soci@@YA?AV?$type_ptr@Vinto_type_base@details@soci@@@01@AEAGUbasic_type_tag@01@@Z
	??$do_into@H@details@soci@@YA?AV?$type_ptr@Vinto_type_base@details@soci@@@01@AEAHUbasic_type_tag@01@@Z
	??$do_into@I@details@soci@@YA?AV?$type_ptr@Vinto_type_base@details@soci@@@01@AEAIUbasic_type_tag@01@@Z
	??$do_into@J@details@soci@@YA?AV?$type_ptr@Vinto_type_base@details@soci@@@01@AEAJUbasic_type_tag@01@@Z
	??$do_into@V?$basic_string@DU?$char_traits@D@std@@V?$allocator@D@2@@std@@@details@soci@@YA?AV?$type_ptr@Vinto_type_base@details@soci@@@01@AEAV?$basic_string@DU?$char_traits@D@std@@V?$allocator@D@2@@std@@Ubasic_type_tag@01@@Z
	??$do_into@Vblob@soci@@@details@soci@@YA?AV?$type_ptr@Vinto_type_base@details@soci@@@01@AEAVblob@1@AEAW4indicator@1@Ubasic_type_tag@01@@Z
	??$do_into@Vblob@soci@@@details@soci@@YA?AV?$type_ptr@Vinto_type_base@details@soci@@@01@AEAVblob@1@Ubasic_type_tag@01@@Z
	??$do_into@Vrow@soci@@@details@soci@@YA?AV?$type_ptr@Vinto_type_base@details@soci@@@01@AEAVrow@1@Ubasic_type_tag@01@@Z
	??$do_into@_J@details@soci@@YA?AV?$type_ptr@Vinto_type_base@details@soci@@@01@AEA_JUbasic_type_tag@01@@Z
	??$do_use@E@details@soci@@YA?AV?$type_ptr@Vuse_type_base@details@soci@@@01@AEAEAEBV?$basic_string@DU?$char_traits@D@std@@V?$allocator@D@2@@std@@Uuser_type_tag@01@@Z
	??$do_use@E@details@soci@@YA?AV?$type_ptr@Vuse_type_base@details@soci@@@01@AEBEAEBV?$basic_string@DU?$char_traits@D@std@@V?$allocator@D@2@@std@@Uuser_type_tag@01@@Z
	??$do_use@G@details@soci@@YA?AV?$type_ptr@Vuse_type_base@details@soci@@@01@AEAGAEBV?$basic_string@DU?$char_traits@D@std@@V?$allocator@D@2@@std@@Ubasic_type_tag@01@@Z
	??$do_use@G@details@soci@@YA?AV?$type_ptr@Vuse_type_base@details@soci@@@01@AEBGAEBV?$basic_string@DU?$char_traits@D@std@@V?$allocator@D@2@@std@@Ubasic_type_tag@01@@Z
	??$do_use@H@details@soci@@YA?AV?$type_ptr@Vuse_type_base@details@soci@@@01@AEAHAEBV?$basic_string@DU?$char_traits@D@std@@V?$allocator@D@2@@std@@Ubasic_type_tag@01@@Z
	??$do_use@H@details@soci@@YA?AV?$type_ptr@Vuse_type_base@details@soci@@@01@AEBHAEBV?$basic_string@DU?$char_traits@D@std@@V?$allocator@D@2@@std@@Ubasic_type_tag@01@@Z
	??$do_use@I@details@soci@@YA?AV?$type_ptr@Vuse_type_base@details@soci@@@01@AEAIAEBV?$basic_string@DU?$char_traits@D@std@@V?$allocator@D@2@@std@@Ubasic_type_tag@01@@Z
	??$do_use@J@details@soci@@YA?AV?$type_ptr@Vuse_type_base@details@soci@@@01@AEAJAEBV?$basic_string@DU?$char_traits@D@std@@V?$allocator@D@2@@std@@Ubasic_type_tag@01@@Z
	??$do_use@J@details@soci@@YA?AV?$type_ptr@Vuse_type_base@details@soci@@@01@AEBJAEBV?$basic_string@DU?$char_traits@D@std@@V?$allocator@D@2@@std@@Ubasic_type_tag@01@@Z
	??$do_use@V?$basic_string@DU?$char_traits@D@std@@V?$allocator@D@2@@std@@@details@soci@@YA?AV?$type_ptr@Vuse_type_base@details@soci@@@01@AEAV?$basic_string@DU?$char_traits@D@std@@V?$allocator@D@2@@std@@AEBV34@Ubasic_type_tag@01@@Z
	??$do_use@V?$basic_string@DU?$char_traits@D@std@@V?$allocator@D@2@@std@@@details@soci@@YA?AV?$type_ptr@Vuse_type_base@details@soci@@@01@AEBV?$basic_string@DU?$char_traits@D@std@@V?$allocator@D@2@@std@@0Ubasic_type_tag@01@@Z
	??$do_use@Vblob@soci@@@details@soci@@YA?AV?$type_ptr@Vuse_type_base@details@soci@@@01@AEAVblob@1@AEBV?$basic_string@DU?$char_traits@D@std@@V?$allocator@D@2@@std@@Ubasic_type_tag@01@@Z
	??$do_use@_J@details@soci@@YA?AV?$type_ptr@Vuse_type_base@details@soci@@@01@AEA_JAEBV?$basic_string@DU?$char_traits@D@std@@V?$allocator@D@2@@std@@Ubasic_type_tag@01@@Z
	??$emplace@AEBV?$basic_string@DU?$char_traits@D@std@@V?$allocator@D@2@@std@@V?$shared_ptr@V?$DR@UC255@lime@@@lime@@@2@@?$_Hash@V?$_Umap_traits@V?$basic_string@DU?$char_traits@D@std@@V?$allocator@D@2@@std@@V?$shared_ptr@V?$DR@UC255@lime@@@lime@@@2@V?$_Uhash_compare@V?$basic_string@DU?$char_traits@D@std@@V?$allocator@D@2@@std@@U?$hash@V?$basic_string@DU?$char_traits@D@std@@V?$allocator@D@2@@std@@@2@U?$equal_to@V?$basic_string@DU?$char_traits@D@std@@V?$allocator@D@2@@std@@@2@@2@V?$allocator@U?$pair@$$CBV?$basic_string@DU?$char_traits@D@std@@V?$allocator@D@2@@std@@V?$shared_ptr@V?$DR@UC255@lime@@@lime@@@2@@std@@@2@$0A@@std@@@std@@QEAA?AU?$pair@V?$_List_iterator@V?$_List_val@U?$_List_simple_types@U?$pair@$$CBV?$basic_string@DU?$char_traits@D@std@@V?$allocator@D@2@@std@@V?$shared_ptr@V?$DR@UC255@lime@@@lime@@@2@@std@@@std@@@std@@@std@@_N@1@AEBV?$basic_string@DU?$char_traits@D@std@@V?$allocator@D@2@@1@$$QEAV?$shared_ptr@V?$DR@UC255@lime@@@lime@@@1@@Z
	??$emplace@AEBV?$basic_string@DU?$char_traits@D@std@@V?$allocator@D@2@@std@@V?$shared_ptr@V?$DR@UC448@lime@@@lime@@@2@@?$_Hash@V?$_Umap_traits@V?$basic_string@DU?$char_traits@D@std@@V?$allocator@D@2@@std@@V?$shared_ptr@V?$DR@UC448@lime@@@lime@@@2@V?$_Uhash_compare@V?$basic_string@DU?$char_traits@D@std@@V?$allocator@D@2@@std@@U?$hash@V?$basic_string@DU?$char_traits@D@std@@V?$allocator@D@2@@std@@@2@U?$equal_to@V?$basic_string@DU?$char_traits@D@std@@V?$allocator@D@2@@std@@@2@@2@V?$allocator@U?$pair@$$CBV?$basic_string@DU?$char_traits@D@std@@V?$allocator@D@2@@std@@V?$shared_ptr@V?$DR@UC448@lime@@@lime@@@2@@std@@@2@$0A@@std@@@std@@QEAA?AU?$pair@V?$_List_iterator@V?$_List_val@U?$_List_simple_types@U?$pair@$$CBV?$basic_string@DU?$char_traits@D@std@@V?$allocator@D@2@@std@@V?$shared_ptr@V?$DR@UC448@lime@@@lime@@@2@@std@@@std@@@std@@@std@@_N@1@AEBV?$basic_string@DU?$char_traits@D@std@@V?$allocator@D@2@@1@$$QEAV?$shared_ptr@V?$DR@UC448@lime@@@lime@@@1@@Z
	??$emplace@U?$pair@$$CBV?$basic_string@DU?$char_traits@D@std@@V?$allocator@D@2@@std@@V?$shared_ptr@VLimeGeneric@lime@@@2@@std@@@?$_Hash@V?$_Umap_traits@V?$basic_string@DU?$char_traits@D@std@@V?$allocator@D@2@@std@@V?$shared_ptr@VLimeGeneric@lime@@@2@V?$_Uhash_compare@V?$basic_string@DU?$char_traits@D@std@@V?$allocator@D@2@@std@@U?$hash@V?$basic_string@DU?$char_traits@D@std@@V?$allocator@D@2@@std@@@2@U?$equal_to@V?$basic_string@DU?$char_traits@D@std@@V?$allocator@D@2@@std@@@2@@2@V?$allocator@U?$pair@$$CBV?$basic_string@DU?$char_traits@D@std@@V?$allocator@D@2@@std@@V?$shared_ptr@VLimeGeneric@lime@@@2@@std@@@2@$0A@@std@@@std@@QEAA?AU?$pair@V?$_List_iterator@V?$_List_val@U?$_List_simple_types@U?$pair@$$CBV?$basic_string@DU?$char_traits@D@std@@V?$allocator@D@2@@std@@V?$shared_ptr@VLimeGeneric@lime@@@2@@std@@@std@@@std@@@std@@_N@1@$$QEAU?$pair@$$CBV?$basic_string@DU?$char_traits@D@std@@V?$allocator@D@2@@std@@V?$shared_ptr@VLimeGeneric@lime@@@2@@1@@Z
	??$encryptMessage@UC255@lime@@@lime@@YAXAEAV?$vector@U?$RecipientInfos@UC255@lime@@@lime@@V?$allocator@U?$RecipientInfos@UC255@lime@@@lime@@@std@@@std@@AEBV?$vector@EV?$allocator@E@std@@@2@1AEBV?$basic_string@DU?$char_traits@D@std@@V?$allocator@D@2@@2@AEAV32@W4EncryptionPolicy@0@V?$shared_ptr@VDb@lime@@@2@@Z
	??$encryptMessage@UC448@lime@@@lime@@YAXAEAV?$vector@U?$RecipientInfos@UC448@lime@@@lime@@V?$allocator@U?$RecipientInfos@UC448@lime@@@lime@@@std@@@std@@AEBV?$vector@EV?$allocator@E@std@@@2@1AEBV?$basic_string@DU?$char_traits@D@std@@V?$allocator@D@2@@2@AEAV32@W4EncryptionPolicy@0@V?$shared_ptr@VDb@lime@@@2@@Z
	??$endl@DU?$char_traits@D@std@@@std@@YAAEAV?$basic_ostream@DU?$char_traits@D@std@@@0@AEAV10@@Z
	??$exchange_@E@use_type_vector@details@soci@@AEAAXAEBU?$use_container@$$CBEX@12@ZZ
	??$exchange_@E@use_type_vector@details@soci@@AEAAXAEBU?$use_container@EX@12@ZZ
	??$exchange_@G@into_type_vector@details@soci@@AEAAXAEBU?$into_container@GX@12@ZZ
	??$exchange_@G@use_type_vector@details@soci@@AEAAXAEBU?$use_container@$$CBGX@12@ZZ
	??$exchange_@G@use_type_vector@details@soci@@AEAAXAEBU?$use_container@GX@12@ZZ
	??$exchange_@H@into_type_vector@details@soci@@AEAAXAEBU?$into_container@HX@12@ZZ
	??$exchange_@H@use_type_vector@details@soci@@AEAAXAEBU?$use_container@$$CBHX@12@ZZ
	??$exchange_@H@use_type_vector@details@soci@@AEAAXAEBU?$use_container@HX@12@ZZ
	??$exchange_@I@into_type_vector@details@soci@@AEAAXAEBU?$into_container@IX@12@ZZ
	??$exchange_@I@use_type_vector@details@soci@@AEAAXAEBU?$use_container@IX@12@ZZ
	??$exchange_@J@into_type_vector@details@soci@@AEAAXAEBU?$into_container@JX@12@ZZ
	??$exchange_@J@use_type_vector@details@soci@@AEAAXAEBU?$use_container@$$CBJX@12@ZZ
	??$exchange_@J@use_type_vector@details@soci@@AEAAXAEBU?$use_container@JX@12@ZZ
	??$exchange_@V?$basic_string@DU?$char_traits@D@std@@V?$allocator@D@2@@std@@@into_type_vector@details@soci@@AEAAXAEBU?$into_container@V?$basic_string@DU?$char_traits@D@std@@V?$allocator@D@2@@std@@X@12@ZZ
	??$exchange_@V?$basic_string@DU?$char_traits@D@std@@V?$allocator@D@2@@std@@@use_type_vector@details@soci@@AEAAXAEBU?$use_container@$$CBV?$basic_string@DU?$char_traits@D@std@@V?$allocator@D@2@@std@@X@12@ZZ
	??$exchange_@V?$basic_string@DU?$char_traits@D@std@@V?$allocator@D@2@@std@@@use_type_vector@details@soci@@AEAAXAEBU?$use_container@V?$basic_string@DU?$char_traits@D@std@@V?$allocator@D@2@@std@@X@12@ZZ
	??$exchange_@Vblob@soci@@@into_type_vector@details@soci@@AEAAXAEBU?$into_container@Vblob@soci@@X@12@ZZ
	??$exchange_@Vblob@soci@@@use_type_vector@details@soci@@AEAAXAEBU?$use_container@Vblob@soci@@X@12@ZZ
	??$exchange_@Vblob@soci@@W4indicator@2@@into_type_vector@details@soci@@AEAAXAEBU?$into_container@Vblob@soci@@W4indicator@2@@12@ZZ
	??$exchange_@Vrow@soci@@@into_type_vector@details@soci@@AEAAXAEBU?$into_container@Vrow@soci@@X@12@ZZ
	??$exchange_@_J@into_type_vector@details@soci@@AEAAXAEBU?$into_container@_JX@12@ZZ
	??$exchange_@_J@use_type_vector@details@soci@@AEAAXAEBU?$use_container@_JX@12@ZZ
	??$fill@PEAV?$_List_unchecked_iterator@V?$_List_val@U?$_List_simple_types@U?$pair@$$CBGU?$sBuffer@$0DA@@lime@@@std@@@std@@@std@@@std@@V12@@std@@YAXQEAV?$_List_unchecked_iterator@V?$_List_val@U?$_List_simple_types@U?$pair@$$CBGU?$sBuffer@$0DA@@lime@@@std@@@std@@@std@@@0@0AEBV10@@Z
	??$fill@PEAV?$_List_unchecked_iterator@V?$_List_val@U?$_List_simple_types@U?$pair@$$CBV?$basic_string@DU?$char_traits@D@std@@V?$allocator@D@2@@std@@V?$shared_ptr@V?$DR@UC255@lime@@@lime@@@2@@std@@@std@@@std@@@std@@V12@@std@@YAXQEAV?$_List_unchecked_iterator@V?$_List_val@U?$_List_simple_types@U?$pair@$$CBV?$basic_string@DU?$char_traits@D@std@@V?$allocator@D@2@@std@@V?$shared_ptr@V?$DR@UC255@lime@@@lime@@@2@@std@@@std@@@std@@@0@0AEBV10@@Z
	??$fill@PEAV?$_List_unchecked_iterator@V?$_List_val@U?$_List_simple_types@U?$pair@$$CBV?$basic_string@DU?$char_traits@D@std@@V?$allocator@D@2@@std@@V?$shared_ptr@V?$DR@UC448@lime@@@lime@@@2@@std@@@std@@@std@@@std@@V12@@std@@YAXQEAV?$_List_unchecked_iterator@V?$_List_val@U?$_List_simple_types@U?$pair@$$CBV?$basic_string@DU?$char_traits@D@std@@V?$allocator@D@2@@std@@V?$shared_ptr@V?$DR@UC448@lime@@@lime@@@2@@std@@@std@@@std@@@0@0AEBV10@@Z
	??$fill@PEAV?$_List_unchecked_iterator@V?$_List_val@U?$_List_simple_types@U?$pair@$$CBV?$basic_string@DU?$char_traits@D@std@@V?$allocator@D@2@@std@@V?$shared_ptr@VLimeGeneric@lime@@@2@@std@@@std@@@std@@@std@@V12@@std@@YAXQEAV?$_List_unchecked_iterator@V?$_List_val@U?$_List_simple_types@U?$pair@$$CBV?$basic_string@DU?$char_traits@D@std@@V?$allocator@D@2@@std@@V?$shared_ptr@VLimeGeneric@lime@@@2@@std@@@std@@@std@@@0@0AEBV10@@Z
	??$get@V?$basic_string@DU?$char_traits@D@std@@V?$allocator@D@2@@std@@@row@soci@@QEBA?AV?$basic_string@DU?$char_traits@D@std@@V?$allocator@D@2@@std@@_K@Z
	??$insert@V?$_List_unchecked_const_iterator@V?$_List_val@U?$_List_simple_types@U?$pair@$$CBGU?$sBuffer@$0DA@@lime@@@std@@@std@@@std@@U_Iterator_base0@2@@std@@@?$_Hash@V?$_Umap_traits@GU?$sBuffer@$0DA@@lime@@V?$_Uhash_compare@GU?$hash@G@std@@U?$equal_to@G@2@@std@@V?$allocator@U?$pair@$$CBGU?$sBuffer@$0DA@@lime@@@std@@@4@$0A@@std@@@std@@QEAAXV?$_List_unchecked_const_iterator@V?$_List_val@U?$_List_simple_types@U?$pair@$$CBGU?$sBuffer@$0DA@@lime@@@std@@@std@@@std@@U_Iterator_base0@2@@1@0@Z
	??$into@G@soci@@YA?AU?$into_container@GX@details@0@AEAG@Z
	??$into@H@soci@@YA?AU?$into_container@HX@details@0@AEAH@Z
	??$into@I@soci@@YA?AU?$into_container@IX@details@0@AEAI@Z
	??$into@J@soci@@YA?AU?$into_container@JX@details@0@AEAJ@Z
	??$into@V?$basic_string@DU?$char_traits@D@std@@V?$allocator@D@2@@std@@@soci@@YA?AU?$into_container@V?$basic_string@DU?$char_traits@D@std@@V?$allocator@D@2@@std@@X@details@0@AEAV?$basic_string@DU?$char_traits@D@std@@V?$allocator@D@2@@std@@@Z
	??$into@Vblob@soci@@@soci@@YA?AU?$into_container@Vblob@soci@@X@details@0@AEAVblob@0@@Z
	??$into@Vblob@soci@@W4indicator@2@@soci@@YA?AU?$into_container@Vblob@soci@@W4indicator@2@@details@0@AEAVblob@0@AEAW4indicator@0@@Z
	??$into@Vrow@soci@@@soci@@YA?AU?$into_container@Vrow@soci@@X@details@0@AEAVrow@0@@Z
	??$into@_J@soci@@YA?AU?$into_container@_JX@details@0@AEA_J@Z
	??$invoke@AEAV<lambda_2729ea627d046d894fd451ab504ba8ae>@@HAEBV?$vector@EV?$allocator@E@std@@@std@@@std@@YAXAEAV<lambda_2729ea627d046d894fd451ab504ba8ae>@@$$QEAHAEBV?$vector@EV?$allocator@E@std@@@0@@Z
	??$invoke@AEAV<lambda_efc32634edcf6ab1e929fb35f3eb1ebf>@@HAEBV?$vector@EV?$allocator@E@std@@@std@@@std@@YAXAEAV<lambda_efc32634edcf6ab1e929fb35f3eb1ebf>@@$$QEAHAEBV?$vector@EV?$allocator@E@std@@@0@@Z
	??$make_Signature@UC255@lime@@@lime@@YA?AV?$shared_ptr@V?$Signature@UC255@lime@@@lime@@@std@@XZ
	??$make_Signature@UC448@lime@@@lime@@YA?AV?$shared_ptr@V?$Signature@UC448@lime@@@lime@@@std@@XZ
	??$make_keyExchange@UC255@lime@@@lime@@YA?AV?$shared_ptr@V?$keyExchange@UC255@lime@@@lime@@@std@@XZ
	??$make_keyExchange@UC448@lime@@@lime@@YA?AV?$shared_ptr@V?$keyExchange@UC448@lime@@@lime@@@std@@XZ
	??$make_shared@U?$callbackUserData@UC255@lime@@@lime@@V?$shared_ptr@V?$Lime@UC255@lime@@@lime@@@std@@AEBV?$function@$$A6AXW4CallbackReturn@lime@@V?$basic_string@DU?$char_traits@D@std@@V?$allocator@D@2@@std@@@Z@4@@std@@YA?AV?$shared_ptr@U?$callbackUserData@UC255@lime@@@lime@@@0@$$QEAV?$shared_ptr@V?$Lime@UC255@lime@@@lime@@@0@AEBV?$function@$$A6AXW4CallbackReturn@lime@@V?$basic_string@DU?$char_traits@D@std@@V?$allocator@D@2@@std@@@Z@0@@Z
	??$make_shared@U?$callbackUserData@UC255@lime@@@lime@@V?$shared_ptr@V?$Lime@UC255@lime@@@lime@@@std@@AEBV?$function@$$A6AXW4CallbackReturn@lime@@V?$basic_string@DU?$char_traits@D@std@@V?$allocator@D@2@@std@@@Z@4@AEAV?$shared_ptr@$$CBV?$vector@EV?$allocator@E@std@@@std@@@4@AEAV?$shared_ptr@V?$vector@URecipientData@lime@@V?$allocator@URecipientData@lime@@@std@@@std@@@4@AEAV64@AEAV?$shared_ptr@V?$vector@EV?$allocator@E@std@@@std@@@4@AEBW4EncryptionPolicy@2@@std@@YA?AV?$shared_ptr@U?$callbackUserData@UC255@lime@@@lime@@@0@$$QEAV?$shared_ptr@V?$Lime@UC255@lime@@@lime@@@0@AEBV?$function@$$A6AXW4CallbackReturn@lime@@V?$basic_string@DU?$char_traits@D@std@@V?$allocator@D@2@@std@@@Z@0@AEAV?$shared_ptr@$$CBV?$vector@EV?$allocator@E@std@@@std@@@0@AEAV?$shared_ptr@V?$vector@URecipientData@lime@@V?$allocator@URecipientData@lime@@@std@@@std@@@0@2AEAV?$shared_ptr@V?$vector@EV?$allocator@E@std@@@std@@@0@AEBW4EncryptionPolicy@lime@@@Z
	??$make_shared@U?$callbackUserData@UC255@lime@@@lime@@V?$shared_ptr@V?$Lime@UC255@lime@@@lime@@@std@@AEBV?$function@$$A6AXW4CallbackReturn@lime@@V?$basic_string@DU?$char_traits@D@std@@V?$allocator@D@2@@std@@@Z@4@AEBGAEAG@std@@YA?AV?$shared_ptr@U?$callbackUserData@UC255@lime@@@lime@@@0@$$QEAV?$shared_ptr@V?$Lime@UC255@lime@@@lime@@@0@AEBV?$function@$$A6AXW4CallbackReturn@lime@@V?$basic_string@DU?$char_traits@D@std@@V?$allocator@D@2@@std@@@Z@0@AEBGAEAG@Z
	??$make_shared@U?$callbackUserData@UC448@lime@@@lime@@V?$shared_ptr@V?$Lime@UC448@lime@@@lime@@@std@@AEBV?$function@$$A6AXW4CallbackReturn@lime@@V?$basic_string@DU?$char_traits@D@std@@V?$allocator@D@2@@std@@@Z@4@@std@@YA?AV?$shared_ptr@U?$callbackUserData@UC448@lime@@@lime@@@0@$$QEAV?$shared_ptr@V?$Lime@UC448@lime@@@lime@@@0@AEBV?$function@$$A6AXW4CallbackReturn@lime@@V?$basic_string@DU?$char_traits@D@std@@V?$allocator@D@2@@std@@@Z@0@@Z
	??$make_shared@U?$callbackUserData@UC448@lime@@@lime@@V?$shared_ptr@V?$Lime@UC448@lime@@@lime@@@std@@AEBV?$function@$$A6AXW4CallbackReturn@lime@@V?$basic_string@DU?$char_traits@D@std@@V?$allocator@D@2@@std@@@Z@4@AEAV?$shared_ptr@$$CBV?$vector@EV?$allocator@E@std@@@std@@@4@AEAV?$shared_ptr@V?$vector@URecipientData@lime@@V?$allocator@URecipientData@lime@@@std@@@std@@@4@AEAV64@AEAV?$shared_ptr@V?$vector@EV?$allocator@E@std@@@std@@@4@AEBW4EncryptionPolicy@2@@std@@YA?AV?$shared_ptr@U?$callbackUserData@UC448@lime@@@lime@@@0@$$QEAV?$shared_ptr@V?$Lime@UC448@lime@@@lime@@@0@AEBV?$function@$$A6AXW4CallbackReturn@lime@@V?$basic_string@DU?$char_traits@D@std@@V?$allocator@D@2@@std@@@Z@0@AEAV?$shared_ptr@$$CBV?$vector@EV?$allocator@E@std@@@std@@@0@AEAV?$shared_ptr@V?$vector@URecipientData@lime@@V?$allocator@URecipientData@lime@@@std@@@std@@@0@2AEAV?$shared_ptr@V?$vector@EV?$allocator@E@std@@@std@@@0@AEBW4EncryptionPolicy@lime@@@Z
	??$make_shared@U?$callbackUserData@UC448@lime@@@lime@@V?$shared_ptr@V?$Lime@UC448@lime@@@lime@@@std@@AEBV?$function@$$A6AXW4CallbackReturn@lime@@V?$basic_string@DU?$char_traits@D@std@@V?$allocator@D@2@@std@@@Z@4@AEBGAEAG@std@@YA?AV?$shared_ptr@U?$callbackUserData@UC448@lime@@@lime@@@0@$$QEAV?$shared_ptr@V?$Lime@UC448@lime@@@lime@@@0@AEBV?$function@$$A6AXW4CallbackReturn@lime@@V?$basic_string@DU?$char_traits@D@std@@V?$allocator@D@2@@std@@@Z@0@AEBGAEAG@Z
	??$make_shared@V?$Lime@UC255@lime@@@lime@@AEAV?$shared_ptr@VDb@lime@@@std@@AEBV?$basic_string@DU?$char_traits@D@std@@V?$allocator@D@2@@4@AEAV54@AEBV?$function@$$A6AXAEBV?$basic_string@DU?$char_traits@D@std@@V?$allocator@D@2@@std@@0AEBV?$vector@EV?$allocator@E@std@@@2@AEBV?$function@$$A6AXHAEBV?$vector@EV?$allocator@E@std@@@std@@@Z@2@@Z@4@AEAJ@std@@YA?AV?$shared_ptr@V?$Lime@UC255@lime@@@lime@@@0@AEAV?$shared_ptr@VDb@lime@@@0@AEBV?$basic_string@DU?$char_traits@D@std@@V?$allocator@D@2@@0@AEAV30@AEBV?$function@$$A6AXAEBV?$basic_string@DU?$char_traits@D@std@@V?$allocator@D@2@@std@@0AEBV?$vector@EV?$allocator@E@std@@@2@AEBV?$function@$$A6AXHAEBV?$vector@EV?$allocator@E@std@@@std@@@Z@2@@Z@0@AEAJ@Z
	??$make_shared@V?$Lime@UC255@lime@@@lime@@AEAV?$shared_ptr@VDb@lime@@@std@@AEBV?$basic_string@DU?$char_traits@D@std@@V?$allocator@D@2@@4@AEBV54@AEBV?$function@$$A6AXAEBV?$basic_string@DU?$char_traits@D@std@@V?$allocator@D@2@@std@@0AEBV?$vector@EV?$allocator@E@std@@@2@AEBV?$function@$$A6AXHAEBV?$vector@EV?$allocator@E@std@@@std@@@Z@2@@Z@4@@std@@YA?AV?$shared_ptr@V?$Lime@UC255@lime@@@lime@@@0@AEAV?$shared_ptr@VDb@lime@@@0@AEBV?$basic_string@DU?$char_traits@D@std@@V?$allocator@D@2@@0@1AEBV?$function@$$A6AXAEBV?$basic_string@DU?$char_traits@D@std@@V?$allocator@D@2@@std@@0AEBV?$vector@EV?$allocator@E@std@@@2@AEBV?$function@$$A6AXHAEBV?$vector@EV?$allocator@E@std@@@std@@@Z@2@@Z@0@@Z
	??$make_shared@V?$Lime@UC448@lime@@@lime@@AEAV?$shared_ptr@VDb@lime@@@std@@AEBV?$basic_string@DU?$char_traits@D@std@@V?$allocator@D@2@@4@AEAV54@AEBV?$function@$$A6AXAEBV?$basic_string@DU?$char_traits@D@std@@V?$allocator@D@2@@std@@0AEBV?$vector@EV?$allocator@E@std@@@2@AEBV?$function@$$A6AXHAEBV?$vector@EV?$allocator@E@std@@@std@@@Z@2@@Z@4@AEAJ@std@@YA?AV?$shared_ptr@V?$Lime@UC448@lime@@@lime@@@0@AEAV?$shared_ptr@VDb@lime@@@0@AEBV?$basic_string@DU?$char_traits@D@std@@V?$allocator@D@2@@0@AEAV30@AEBV?$function@$$A6AXAEBV?$basic_string@DU?$char_traits@D@std@@V?$allocator@D@2@@std@@0AEBV?$vector@EV?$allocator@E@std@@@2@AEBV?$function@$$A6AXHAEBV?$vector@EV?$allocator@E@std@@@std@@@Z@2@@Z@0@AEAJ@Z
	??$make_shared@V?$Lime@UC448@lime@@@lime@@AEAV?$shared_ptr@VDb@lime@@@std@@AEBV?$basic_string@DU?$char_traits@D@std@@V?$allocator@D@2@@4@AEBV54@AEBV?$function@$$A6AXAEBV?$basic_string@DU?$char_traits@D@std@@V?$allocator@D@2@@std@@0AEBV?$vector@EV?$allocator@E@std@@@2@AEBV?$function@$$A6AXHAEBV?$vector@EV?$allocator@E@std@@@std@@@Z@2@@Z@4@@std@@YA?AV?$shared_ptr@V?$Lime@UC448@lime@@@lime@@@0@AEAV?$shared_ptr@VDb@lime@@@0@AEBV?$basic_string@DU?$char_traits@D@std@@V?$allocator@D@2@@0@1AEBV?$function@$$A6AXAEBV?$basic_string@DU?$char_traits@D@std@@V?$allocator@D@2@@std@@0AEBV?$vector@EV?$allocator@E@std@@@2@AEBV?$function@$$A6AXHAEBV?$vector@EV?$allocator@E@std@@@std@@@Z@2@@Z@0@@Z
	??$parseMessage_X3DHinit@UC255@lime@@@double_ratchet_protocol@lime@@YAXV?$vector@EV?$allocator@E@std@@@std@@AEAV?$DSA@UC255@lime@@$0A@@1@AEAV?$X@UC255@lime@@$0A@@1@AEAI3AEA_N@Z
	??$parseMessage_X3DHinit@UC448@lime@@@double_ratchet_protocol@lime@@YAXV?$vector@EV?$allocator@E@std@@@std@@AEAV?$DSA@UC448@lime@@$0A@@1@AEAV?$X@UC448@lime@@$0A@@1@AEAI3AEA_N@Z
	??$parseMessage_getPeerBundles@UC255@lime@@@x3dh_protocol@lime@@YA_NAEBV?$vector@EV?$allocator@E@std@@@std@@AEAV?$vector@U?$X3DH_peerBundle@UC255@lime@@@lime@@V?$allocator@U?$X3DH_peerBundle@UC255@lime@@@lime@@@std@@@3@@Z
	??$parseMessage_getPeerBundles@UC448@lime@@@x3dh_protocol@lime@@YA_NAEBV?$vector@EV?$allocator@E@std@@@std@@AEAV?$vector@U?$X3DH_peerBundle@UC448@lime@@@lime@@V?$allocator@U?$X3DH_peerBundle@UC448@lime@@@lime@@@std@@@3@@Z
	??$parseMessage_getType@UC255@lime@@@x3dh_protocol@lime@@YA_NAEBV?$vector@EV?$allocator@E@std@@@std@@AEAW4x3dh_message_type@01@AEAW4x3dh_error_code@01@V?$function@$$A6AXW4CallbackReturn@lime@@V?$basic_string@DU?$char_traits@D@std@@V?$allocator@D@2@@std@@@Z@3@@Z
	??$parseMessage_getType@UC448@lime@@@x3dh_protocol@lime@@YA_NAEBV?$vector@EV?$allocator@E@std@@@std@@AEAW4x3dh_message_type@01@AEAW4x3dh_error_code@01@V?$function@$$A6AXW4CallbackReturn@lime@@V?$basic_string@DU?$char_traits@D@std@@V?$allocator@D@2@@std@@@Z@3@@Z
	??$parseMessage_get_X3DHinit@UC255@lime@@@double_ratchet_protocol@lime@@YA_NAEBV?$vector@EV?$allocator@E@std@@@std@@AEAV23@@Z
	??$parseMessage_get_X3DHinit@UC448@lime@@@double_ratchet_protocol@lime@@YA_NAEBV?$vector@EV?$allocator@E@std@@@std@@AEAV23@@Z
	??$parseMessage_selfOPks@UC255@lime@@@x3dh_protocol@lime@@YA_NAEBV?$vector@EV?$allocator@E@std@@@std@@AEAV?$vector@IV?$allocator@I@std@@@3@@Z
	??$parseMessage_selfOPks@UC448@lime@@@x3dh_protocol@lime@@YA_NAEBV?$vector@EV?$allocator@E@std@@@std@@AEAV?$vector@IV?$allocator@I@std@@@3@@Z
	??$ratchetDecrypt@U?$sBuffer@$0CA@@lime@@@?$DR@UC255@lime@@@lime@@QEAA_NAEBV?$vector@EV?$allocator@E@std@@@std@@0AEAU?$sBuffer@$0CA@@1@_N@Z
	??$ratchetDecrypt@U?$sBuffer@$0CA@@lime@@@?$DR@UC448@lime@@@lime@@QEAA_NAEBV?$vector@EV?$allocator@E@std@@@std@@0AEAU?$sBuffer@$0CA@@1@_N@Z
	??$ratchetDecrypt@V?$vector@EV?$allocator@E@std@@@std@@@?$DR@UC255@lime@@@lime@@QEAA_NAEBV?$vector@EV?$allocator@E@std@@@std@@0AEAV23@_N@Z
	??$ratchetDecrypt@V?$vector@EV?$allocator@E@std@@@std@@@?$DR@UC448@lime@@@lime@@QEAA_NAEBV?$vector@EV?$allocator@E@std@@@std@@0AEAV23@_N@Z
	??$ratchetEncrypt@U?$sBuffer@$0CA@@lime@@@?$DR@UC255@lime@@@lime@@QEAAXAEBU?$sBuffer@$0CA@@1@$$QEAV?$vector@EV?$allocator@E@std@@@std@@AEAV34@_N@Z
	??$ratchetEncrypt@U?$sBuffer@$0CA@@lime@@@?$DR@UC448@lime@@@lime@@QEAAXAEBU?$sBuffer@$0CA@@1@$$QEAV?$vector@EV?$allocator@E@std@@@std@@AEAV34@_N@Z
	??$ratchetEncrypt@V?$vector@EV?$allocator@E@std@@@std@@@?$DR@UC255@lime@@@lime@@QEAAXAEBV?$vector@EV?$allocator@E@std@@@std@@$$QEAV23@AEAV23@_N@Z
	??$ratchetEncrypt@V?$vector@EV?$allocator@E@std@@@std@@@?$DR@UC448@lime@@@lime@@QEAAXAEBV?$vector@EV?$allocator@E@std@@@std@@$$QEAV23@AEAV23@_N@Z
	??$setfill@D@std@@YA?AU?$_Fillobj@D@0@D@Z
	??$store_peerDevice@UC255@lime@@@Db@lime@@QEAAJAEBV?$basic_string@DU?$char_traits@D@std@@V?$allocator@D@2@@std@@AEBV?$DSA@UC255@lime@@$0A@@1@@Z
	??$store_peerDevice@UC448@lime@@@Db@lime@@QEAAJAEBV?$basic_string@DU?$char_traits@D@std@@V?$allocator@D@2@@std@@AEBV?$DSA@UC448@lime@@$0A@@1@@Z
	??$uninitialized_copy@PEAPEAV?$shared_ptr@U?$callbackUserData@UC255@lime@@@lime@@@std@@PEAPEAV12@@std@@YAPEAPEAV?$shared_ptr@U?$callbackUserData@UC255@lime@@@lime@@@0@QEAPEAV10@0PEAPEAV10@@Z
	??$uninitialized_copy@PEAPEAV?$shared_ptr@U?$callbackUserData@UC448@lime@@@lime@@@std@@PEAPEAV12@@std@@YAPEAPEAV?$shared_ptr@U?$callbackUserData@UC448@lime@@@lime@@@0@QEAPEAV10@0PEAPEAV10@@Z
	??$uninitialized_fill@PEAV?$_List_unchecked_iterator@V?$_List_val@U?$_List_simple_types@U?$pair@$$CBGU?$sBuffer@$0DA@@lime@@@std@@@std@@@std@@@std@@V12@@std@@YAXQEAV?$_List_unchecked_iterator@V?$_List_val@U?$_List_simple_types@U?$pair@$$CBGU?$sBuffer@$0DA@@lime@@@std@@@std@@@std@@@0@0AEBV10@@Z
	??$uninitialized_fill@PEAV?$_List_unchecked_iterator@V?$_List_val@U?$_List_simple_types@U?$pair@$$CBV?$basic_string@DU?$char_traits@D@std@@V?$allocator@D@2@@std@@V?$shared_ptr@V?$DR@UC255@lime@@@lime@@@2@@std@@@std@@@std@@@std@@V12@@std@@YAXQEAV?$_List_unchecked_iterator@V?$_List_val@U?$_List_simple_types@U?$pair@$$CBV?$basic_string@DU?$char_traits@D@std@@V?$allocator@D@2@@std@@V?$shared_ptr@V?$DR@UC255@lime@@@lime@@@2@@std@@@std@@@std@@@0@0AEBV10@@Z
	??$uninitialized_fill@PEAV?$_List_unchecked_iterator@V?$_List_val@U?$_List_simple_types@U?$pair@$$CBV?$basic_string@DU?$char_traits@D@std@@V?$allocator@D@2@@std@@V?$shared_ptr@V?$DR@UC448@lime@@@lime@@@2@@std@@@std@@@std@@@std@@V12@@std@@YAXQEAV?$_List_unchecked_iterator@V?$_List_val@U?$_List_simple_types@U?$pair@$$CBV?$basic_string@DU?$char_traits@D@std@@V?$allocator@D@2@@std@@V?$shared_ptr@V?$DR@UC448@lime@@@lime@@@2@@std@@@std@@@std@@@0@0AEBV10@@Z
	??$uninitialized_fill@PEAV?$_List_unchecked_iterator@V?$_List_val@U?$_List_simple_types@U?$pair@$$CBV?$basic_string@DU?$char_traits@D@std@@V?$allocator@D@2@@std@@V?$shared_ptr@VLimeGeneric@lime@@@2@@std@@@std@@@std@@@std@@V12@@std@@YAXQEAV?$_List_unchecked_iterator@V?$_List_val@U?$_List_simple_types@U?$pair@$$CBV?$basic_string@DU?$char_traits@D@std@@V?$allocator@D@2@@std@@V?$shared_ptr@VLimeGeneric@lime@@@2@@std@@@std@@@std@@@0@0AEBV10@@Z
	??$use@E@soci@@YA?AU?$use_container@$$CBEX@details@0@AEBEAEBV?$basic_string@DU?$char_traits@D@std@@V?$allocator@D@2@@std@@@Z
	??$use@E@soci@@YA?AU?$use_container@EX@details@0@AEAEAEBV?$basic_string@DU?$char_traits@D@std@@V?$allocator@D@2@@std@@@Z
	??$use@G@soci@@YA?AU?$use_container@$$CBGX@details@0@AEBGAEBV?$basic_string@DU?$char_traits@D@std@@V?$allocator@D@2@@std@@@Z
	??$use@G@soci@@YA?AU?$use_container@GX@details@0@AEAGAEBV?$basic_string@DU?$char_traits@D@std@@V?$allocator@D@2@@std@@@Z
	??$use@H@soci@@YA?AU?$use_container@$$CBHX@details@0@AEBHAEBV?$basic_string@DU?$char_traits@D@std@@V?$allocator@D@2@@std@@@Z
	??$use@H@soci@@YA?AU?$use_container@HX@details@0@AEAHAEBV?$basic_string@DU?$char_traits@D@std@@V?$allocator@D@2@@std@@@Z
	??$use@I@soci@@YA?AU?$use_container@IX@details@0@AEAIAEBV?$basic_string@DU?$char_traits@D@std@@V?$allocator@D@2@@std@@@Z
	??$use@J@soci@@YA?AU?$use_container@$$CBJX@details@0@AEBJAEBV?$basic_string@DU?$char_traits@D@std@@V?$allocator@D@2@@std@@@Z
	??$use@J@soci@@YA?AU?$use_container@JX@details@0@AEAJAEBV?$basic_string@DU?$char_traits@D@std@@V?$allocator@D@2@@std@@@Z
	??$use@V?$basic_string@DU?$char_traits@D@std@@V?$allocator@D@2@@std@@@soci@@YA?AU?$use_container@$$CBV?$basic_string@DU?$char_traits@D@std@@V?$allocator@D@2@@std@@X@details@0@AEBV?$basic_string@DU?$char_traits@D@std@@V?$allocator@D@2@@std@@0@Z
	??$use@V?$basic_string@DU?$char_traits@D@std@@V?$allocator@D@2@@std@@@soci@@YA?AU?$use_container@V?$basic_string@DU?$char_traits@D@std@@V?$allocator@D@2@@std@@X@details@0@AEAV?$basic_string@DU?$char_traits@D@std@@V?$allocator@D@2@@std@@AEBV34@@Z
	??$use@Vblob@soci@@@soci@@YA?AU?$use_container@Vblob@soci@@X@details@0@AEAVblob@0@AEBV?$basic_string@DU?$char_traits@D@std@@V?$allocator@D@2@@std@@@Z
	??$use@_J@soci@@YA?AU?$use_container@_JX@details@0@AEA_JAEBV?$basic_string@DU?$char_traits@D@std@@V?$allocator@D@2@@std@@@Z
	??0?$DR@UC255@lime@@@lime@@QEAA@V?$shared_ptr@VDb@lime@@@std@@AEBU?$sBuffer@$0CA@@1@AEBV?$array@E$0CA@@3@AEBV?$X@UC255@lime@@$0A@@1@JAEBV?$basic_string@DU?$char_traits@D@std@@V?$allocator@D@2@@3@AEBV?$DSA@UC255@lime@@$0A@@1@JAEBV?$vector@EV?$allocator@E@std@@@3@V?$shared_ptr@VRNG@lime@@@3@@Z
	??0?$DR@UC255@lime@@@lime@@QEAA@V?$shared_ptr@VDb@lime@@@std@@AEBU?$sBuffer@$0CA@@1@AEBV?$array@E$0CA@@3@AEBV?$Xpair@UC255@lime@@@1@JAEBV?$basic_string@DU?$char_traits@D@std@@V?$allocator@D@2@@3@IAEBV?$DSA@UC255@lime@@$0A@@1@JV?$shared_ptr@VRNG@lime@@@3@@Z
	??0?$DR@UC255@lime@@@lime@@QEAA@V?$shared_ptr@VDb@lime@@@std@@JV?$shared_ptr@VRNG@lime@@@3@@Z
	??0?$DR@UC448@lime@@@lime@@QEAA@V?$shared_ptr@VDb@lime@@@std@@AEBU?$sBuffer@$0CA@@1@AEBV?$array@E$0CA@@3@AEBV?$X@UC448@lime@@$0A@@1@JAEBV?$basic_string@DU?$char_traits@D@std@@V?$allocator@D@2@@3@AEBV?$DSA@UC448@lime@@$0A@@1@JAEBV?$vector@EV?$allocator@E@std@@@3@V?$shared_ptr@VRNG@lime@@@3@@Z
	??0?$DR@UC448@lime@@@lime@@QEAA@V?$shared_ptr@VDb@lime@@@std@@AEBU?$sBuffer@$0CA@@1@AEBV?$array@E$0CA@@3@AEBV?$Xpair@UC448@lime@@@1@JAEBV?$basic_string@DU?$char_traits@D@std@@V?$allocator@D@2@@3@IAEBV?$DSA@UC448@lime@@$0A@@1@JV?$shared_ptr@VRNG@lime@@@3@@Z
	??0?$DR@UC448@lime@@@lime@@QEAA@V?$shared_ptr@VDb@lime@@@std@@JV?$shared_ptr@VRNG@lime@@@3@@Z
	??0?$DRHeader@UC255@lime@@@double_ratchet_protocol@lime@@QEAA@V?$vector@EV?$allocator@E@std@@@std@@@Z
	??0?$DRHeader@UC448@lime@@@double_ratchet_protocol@lime@@QEAA@V?$vector@EV?$allocator@E@std@@@std@@@Z
	??0?$DSA@UC255@lime@@$00@lime@@QEAA@V?$_Vector_const_iterator@V?$_Vector_val@U?$_Simple_types@E@std@@@std@@@std@@@Z
	??0?$DSA@UC255@lime@@$00@lime@@QEAA@XZ
	??0?$DSA@UC255@lime@@$01@lime@@QEAA@V?$_Vector_const_iterator@V?$_Vector_val@U?$_Simple_types@E@std@@@std@@@std@@@Z
	??0?$DSA@UC255@lime@@$01@lime@@QEAA@XZ
	??0?$DSA@UC255@lime@@$0A@@lime@@QEAA@V?$_Vector_const_iterator@V?$_Vector_val@U?$_Simple_types@E@std@@@std@@@std@@@Z
	??0?$DSA@UC255@lime@@$0A@@lime@@QEAA@XZ
	??0?$DSA@UC448@lime@@$00@lime@@QEAA@V?$_Vector_const_iterator@V?$_Vector_val@U?$_Simple_types@E@std@@@std@@@std@@@Z
	??0?$DSA@UC448@lime@@$00@lime@@QEAA@XZ
	??0?$DSA@UC448@lime@@$01@lime@@QEAA@V?$_Vector_const_iterator@V?$_Vector_val@U?$_Simple_types@E@std@@@std@@@std@@@Z
	??0?$DSA@UC448@lime@@$01@lime@@QEAA@XZ
	??0?$DSA@UC448@lime@@$0A@@lime@@QEAA@V?$_Vector_const_iterator@V?$_Vector_val@U?$_Simple_types@E@std@@@std@@@std@@@Z
	??0?$DSA@UC448@lime@@$0A@@lime@@QEAA@XZ
	??0?$DSApair@UC255@lime@@@lime@@QEAA@AEAV?$DSA@UC255@lime@@$0A@@1@AEAV?$DSA@UC255@lime@@$00@1@@Z
	??0?$DSApair@UC255@lime@@@lime@@QEAA@XZ
	??0?$DSApair@UC448@lime@@@lime@@QEAA@AEAV?$DSA@UC448@lime@@$0A@@1@AEAV?$DSA@UC448@lime@@$00@1@@Z
	??0?$DSApair@UC448@lime@@@lime@@QEAA@XZ
	??0?$Lime@UC255@lime@@@lime@@QEAA@V?$shared_ptr@VDb@lime@@@std@@AEBV?$basic_string@DU?$char_traits@D@std@@V?$allocator@D@2@@3@1AEBV?$function@$$A6AXAEBV?$basic_string@DU?$char_traits@D@std@@V?$allocator@D@2@@std@@0AEBV?$vector@EV?$allocator@E@std@@@2@AEBV?$function@$$A6AXHAEBV?$vector@EV?$allocator@E@std@@@std@@@Z@2@@Z@3@@Z
	??0?$Lime@UC255@lime@@@lime@@QEAA@V?$shared_ptr@VDb@lime@@@std@@AEBV?$basic_string@DU?$char_traits@D@std@@V?$allocator@D@2@@3@1AEBV?$function@$$A6AXAEBV?$basic_string@DU?$char_traits@D@std@@V?$allocator@D@2@@std@@0AEBV?$vector@EV?$allocator@E@std@@@2@AEBV?$function@$$A6AXHAEBV?$vector@EV?$allocator@E@std@@@std@@@Z@2@@Z@3@J@Z
	??0?$Lime@UC448@lime@@@lime@@QEAA@V?$shared_ptr@VDb@lime@@@std@@AEBV?$basic_string@DU?$char_traits@D@std@@V?$allocator@D@2@@3@1AEBV?$function@$$A6AXAEBV?$basic_string@DU?$char_traits@D@std@@V?$allocator@D@2@@std@@0AEBV?$vector@EV?$allocator@E@std@@@2@AEBV?$function@$$A6AXHAEBV?$vector@EV?$allocator@E@std@@@std@@@Z@2@@Z@3@@Z
	??0?$Lime@UC448@lime@@@lime@@QEAA@V?$shared_ptr@VDb@lime@@@std@@AEBV?$basic_string@DU?$char_traits@D@std@@V?$allocator@D@2@@3@1AEBV?$function@$$A6AXAEBV?$basic_string@DU?$char_traits@D@std@@V?$allocator@D@2@@std@@0AEBV?$vector@EV?$allocator@E@std@@@2@AEBV?$function@$$A6AXHAEBV?$vector@EV?$allocator@E@std@@@std@@@Z@2@@Z@3@J@Z
	??0?$X@UC255@lime@@$00@lime@@QEAA@V?$_Vector_const_iterator@V?$_Vector_val@U?$_Simple_types@E@std@@@std@@@std@@@Z
	??0?$X@UC255@lime@@$00@lime@@QEAA@XZ
	??0?$X@UC255@lime@@$01@lime@@QEAA@V?$_Vector_const_iterator@V?$_Vector_val@U?$_Simple_types@E@std@@@std@@@std@@@Z
	??0?$X@UC255@lime@@$01@lime@@QEAA@XZ
	??0?$X@UC255@lime@@$0A@@lime@@QEAA@V?$_Vector_const_iterator@V?$_Vector_val@U?$_Simple_types@E@std@@@std@@@std@@@Z
	??0?$X@UC255@lime@@$0A@@lime@@QEAA@XZ
	??0?$X@UC448@lime@@$00@lime@@QEAA@V?$_Vector_const_iterator@V?$_Vector_val@U?$_Simple_types@E@std@@@std@@@std@@@Z
	??0?$X@UC448@lime@@$00@lime@@QEAA@XZ
	??0?$X@UC448@lime@@$01@lime@@QEAA@V?$_Vector_const_iterator@V?$_Vector_val@U?$_Simple_types@E@std@@@std@@@std@@@Z
	??0?$X@UC448@lime@@$01@lime@@QEAA@XZ
	??0?$X@UC448@lime@@$0A@@lime@@QEAA@V?$_Vector_const_iterator@V?$_Vector_val@U?$_Simple_types@E@std@@@std@@@std@@@Z
	??0?$X@UC448@lime@@$0A@@lime@@QEAA@XZ
	??0?$Xpair@UC255@lime@@@lime@@QEAA@AEAV?$X@UC255@lime@@$0A@@1@AEAV?$X@UC255@lime@@$00@1@@Z
	??0?$Xpair@UC255@lime@@@lime@@QEAA@XZ
	??0?$Xpair@UC448@lime@@@lime@@QEAA@AEAV?$X@UC448@lime@@$0A@@1@AEAV?$X@UC448@lime@@$00@1@@Z
	??0?$Xpair@UC448@lime@@@lime@@QEAA@XZ
	??0?$basic_ostringstream@DU?$char_traits@D@std@@V?$allocator@D@2@@std@@QEAA@XZ
	??0?$basic_string@DU?$char_traits@D@std@@V?$allocator@D@2@@std@@QEAA@AEBV01@@Z
	??0?$basic_string@DU?$char_traits@D@std@@V?$allocator@D@2@@std@@QEAA@QEBD@Z
	??0?$bctbx_ECDH@UC255@lime@@@lime@@QEAA@XZ
	??0?$bctbx_ECDH@UC448@lime@@@lime@@QEAA@XZ
	??0?$bctbx_EDDSA@UC255@lime@@@lime@@QEAA@XZ
	??0?$bctbx_EDDSA@UC448@lime@@@lime@@QEAA@XZ
	??0?$callbackUserData@UC255@lime@@@lime@@QEAA@V?$weak_ptr@V?$Lime@UC255@lime@@@lime@@@std@@AEBV?$function@$$A6AXW4CallbackReturn@lime@@V?$basic_string@DU?$char_traits@D@std@@V?$allocator@D@2@@std@@@Z@3@G@Z
	??0?$callbackUserData@UC255@lime@@@lime@@QEAA@V?$weak_ptr@V?$Lime@UC255@lime@@@lime@@@std@@AEBV?$function@$$A6AXW4CallbackReturn@lime@@V?$basic_string@DU?$char_traits@D@std@@V?$allocator@D@2@@std@@@Z@3@V?$shared_ptr@$$CBV?$vector@EV?$allocator@E@std@@@std@@@3@V?$shared_ptr@V?$vector@URecipientData@lime@@V?$allocator@URecipientData@lime@@@std@@@std@@@3@2V?$shared_ptr@V?$vector@EV?$allocator@E@std@@@std@@@3@W4EncryptionPolicy@1@@Z
	??0?$callbackUserData@UC448@lime@@@lime@@QEAA@V?$weak_ptr@V?$Lime@UC448@lime@@@lime@@@std@@AEBV?$function@$$A6AXW4CallbackReturn@lime@@V?$basic_string@DU?$char_traits@D@std@@V?$allocator@D@2@@std@@@Z@3@G@Z
	??0?$callbackUserData@UC448@lime@@@lime@@QEAA@V?$weak_ptr@V?$Lime@UC448@lime@@@lime@@@std@@AEBV?$function@$$A6AXW4CallbackReturn@lime@@V?$basic_string@DU?$char_traits@D@std@@V?$allocator@D@2@@std@@@Z@3@V?$shared_ptr@$$CBV?$vector@EV?$allocator@E@std@@@std@@@3@V?$shared_ptr@V?$vector@URecipientData@lime@@V?$allocator@URecipientData@lime@@@std@@@std@@@3@2V?$shared_ptr@V?$vector@EV?$allocator@E@std@@@std@@@3@W4EncryptionPolicy@1@@Z
	??0?$rowset_impl@H@details@soci@@QEAA@AEBVprepare_temp_type@12@@Z
	??0?$rowset_impl@V?$basic_string@DU?$char_traits@D@std@@V?$allocator@D@2@@std@@@details@soci@@QEAA@AEBVprepare_temp_type@12@@Z
	??0?$rowset_impl@Vrow@soci@@@details@soci@@QEAA@AEBVprepare_temp_type@12@@Z
	??0?$shared_ptr@$$CBV?$vector@EV?$allocator@E@std@@@std@@@std@@QEAA@AEBV01@@Z
	??0?$shared_ptr@U?$callbackUserData@UC255@lime@@@lime@@@std@@QEAA@AEBV01@@Z
	??0?$shared_ptr@U?$callbackUserData@UC448@lime@@@lime@@@std@@QEAA@AEBV01@@Z
	??0?$shared_ptr@V?$vector@EV?$allocator@E@std@@@std@@@std@@QEAA@AEBV01@@Z
	??0?$shared_ptr@V?$vector@URecipientData@lime@@V?$allocator@URecipientData@lime@@@std@@@std@@@std@@QEAA@AEBV01@@Z
	??0?$unordered_map@GU?$sBuffer@$0DA@@lime@@U?$hash@G@std@@U?$equal_to@G@4@V?$allocator@U?$pair@$$CBGU?$sBuffer@$0DA@@lime@@@std@@@4@@std@@QEAA@$$QEAV01@@Z
	??0?$unordered_map@GU?$sBuffer@$0DA@@lime@@U?$hash@G@std@@U?$equal_to@G@4@V?$allocator@U?$pair@$$CBGU?$sBuffer@$0DA@@lime@@@std@@@4@@std@@QEAA@AEBV01@@Z
	??0?$unordered_map@GU?$sBuffer@$0DA@@lime@@U?$hash@G@std@@U?$equal_to@G@4@V?$allocator@U?$pair@$$CBGU?$sBuffer@$0DA@@lime@@@std@@@4@@std@@QEAA@XZ
	??0?$unordered_map@V?$basic_string@DU?$char_traits@D@std@@V?$allocator@D@2@@std@@V?$shared_ptr@V?$DR@UC255@lime@@@lime@@@2@U?$hash@V?$basic_string@DU?$char_traits@D@std@@V?$allocator@D@2@@std@@@2@U?$equal_to@V?$basic_string@DU?$char_traits@D@std@@V?$allocator@D@2@@std@@@2@V?$allocator@U?$pair@$$CBV?$basic_string@DU?$char_traits@D@std@@V?$allocator@D@2@@std@@V?$shared_ptr@V?$DR@UC255@lime@@@lime@@@2@@std@@@2@@std@@QEAA@XZ
	??0?$unordered_map@V?$basic_string@DU?$char_traits@D@std@@V?$allocator@D@2@@std@@V?$shared_ptr@V?$DR@UC448@lime@@@lime@@@2@U?$hash@V?$basic_string@DU?$char_traits@D@std@@V?$allocator@D@2@@std@@@2@U?$equal_to@V?$basic_string@DU?$char_traits@D@std@@V?$allocator@D@2@@std@@@2@V?$allocator@U?$pair@$$CBV?$basic_string@DU?$char_traits@D@std@@V?$allocator@D@2@@std@@V?$shared_ptr@V?$DR@UC448@lime@@@lime@@@2@@std@@@2@@std@@QEAA@XZ
	??0?$unordered_map@V?$basic_string@DU?$char_traits@D@std@@V?$allocator@D@2@@std@@V?$shared_ptr@VLimeGeneric@lime@@@2@U?$hash@V?$basic_string@DU?$char_traits@D@std@@V?$allocator@D@2@@std@@@2@U?$equal_to@V?$basic_string@DU?$char_traits@D@std@@V?$allocator@D@2@@std@@@2@V?$allocator@U?$pair@$$CBV?$basic_string@DU?$char_traits@D@std@@V?$allocator@D@2@@std@@V?$shared_ptr@VLimeGeneric@lime@@@2@@std@@@2@@std@@QEAA@XZ
	??0?$vector@EV?$allocator@E@std@@@std@@QEAA@AEBV01@@Z
	??0Db@lime@@QEAA@AEBV?$basic_string@DU?$char_traits@D@std@@V?$allocator@D@2@@std@@V?$shared_ptr@Vrecursive_mutex@std@@@3@@Z
	??0LimeManager@lime@@QEAA@AEBV?$basic_string@DU?$char_traits@D@std@@V?$allocator@D@2@@std@@AEBV?$function@$$A6AXAEBV?$basic_string@DU?$char_traits@D@std@@V?$allocator@D@2@@std@@0AEBV?$vector@EV?$allocator@E@std@@@2@AEBV?$function@$$A6AXHAEBV?$vector@EV?$allocator@E@std@@@std@@@Z@2@@Z@3@@Z
	??0LimeManager@lime@@QEAA@AEBV?$basic_string@DU?$char_traits@D@std@@V?$allocator@D@2@@std@@AEBV?$function@$$A6AXAEBV?$basic_string@DU?$char_traits@D@std@@V?$allocator@D@2@@std@@0AEBV?$vector@EV?$allocator@E@std@@@2@AEBV?$function@$$A6AXHAEBV?$vector@EV?$allocator@E@std@@@std@@@Z@2@@Z@3@V?$shared_ptr@Vrecursive_mutex@std@@@3@@Z
	??0_System_error@std@@IEAA@Verror_code@1@AEBV?$basic_string@DU?$char_traits@D@std@@V?$allocator@D@2@@1@@Z
	??0_System_error@std@@QEAA@AEBV01@@Z
	??0bad_alloc@std@@QEAA@AEBV01@@Z
	??0bad_array_new_length@std@@QEAA@AEBV01@@Z
	??0bad_array_new_length@std@@QEAA@XZ
	??0bad_cast@std@@QEAA@AEBV01@@Z
	??0bad_cast@std@@QEAA@XZ
	??0bad_weak_ptr@std@@QEAA@AEBV01@@Z
	??0bad_weak_ptr@std@@QEAA@XZ
	??0exception@std@@QEAA@AEBV01@@Z
	??0pumpstream@@QEAA@PEBDW4BctbxLogLevel@@@Z
	??0runtime_error@std@@QEAA@AEBV01@@Z
	??0statement@soci@@QEAA@AEBVprepare_temp_type@details@1@@Z
	??0system_error@std@@QEAA@AEBV01@@Z
	??0system_error@std@@QEAA@Verror_code@1@@Z
	??1?$DR@UC255@lime@@@lime@@QEAA@XZ
	??1?$DR@UC448@lime@@@lime@@QEAA@XZ
	??1?$DRHeader@UC255@lime@@@double_ratchet_protocol@lime@@QEAA@XZ
	??1?$DRHeader@UC448@lime@@@double_ratchet_protocol@lime@@QEAA@XZ
	??1?$DSA@UC255@lime@@$00@lime@@QEAA@XZ
	??1?$DSA@UC255@lime@@$01@lime@@QEAA@XZ
	??1?$DSA@UC255@lime@@$0A@@lime@@QEAA@XZ
	??1?$DSA@UC448@lime@@$00@lime@@QEAA@XZ
	??1?$DSA@UC448@lime@@$01@lime@@QEAA@XZ
	??1?$DSA@UC448@lime@@$0A@@lime@@QEAA@XZ
	??1?$DSApair@UC255@lime@@@lime@@QEAA@XZ
	??1?$DSApair@UC448@lime@@@lime@@QEAA@XZ
	??1?$Lime@UC255@lime@@@lime@@UEAA@XZ
	??1?$Lime@UC448@lime@@@lime@@UEAA@XZ
	??1?$ReceiverKeyChain@UC255@lime@@@lime@@QEAA@XZ
	??1?$ReceiverKeyChain@UC448@lime@@@lime@@QEAA@XZ
	??1?$Signature@UC255@lime@@@lime@@UEAA@XZ
	??1?$Signature@UC448@lime@@@lime@@UEAA@XZ
	??1?$X@UC255@lime@@$00@lime@@QEAA@XZ
	??1?$X@UC255@lime@@$01@lime@@QEAA@XZ
	??1?$X@UC255@lime@@$0A@@lime@@QEAA@XZ
	??1?$X@UC448@lime@@$00@lime@@QEAA@XZ
	??1?$X@UC448@lime@@$01@lime@@QEAA@XZ
	??1?$X@UC448@lime@@$0A@@lime@@QEAA@XZ
	??1?$Xpair@UC255@lime@@@lime@@QEAA@XZ
	??1?$Xpair@UC448@lime@@@lime@@QEAA@XZ
	??1?$_Alloc_construct_ptr@V?$allocator@U?$_List_node@U?$pair@$$CBGU?$sBuffer@$0DA@@lime@@@std@@PEAX@std@@@std@@@std@@QEAA@XZ
	??1?$_Alloc_construct_ptr@V?$allocator@U?$_List_node@U?$pair@$$CBV?$basic_string@DU?$char_traits@D@std@@V?$allocator@D@2@@std@@V?$shared_ptr@V?$DR@UC255@lime@@@lime@@@2@@std@@PEAX@std@@@std@@@std@@QEAA@XZ
	??1?$_Alloc_construct_ptr@V?$allocator@U?$_List_node@U?$pair@$$CBV?$basic_string@DU?$char_traits@D@std@@V?$allocator@D@2@@std@@V?$shared_ptr@V?$DR@UC448@lime@@@lime@@@2@@std@@PEAX@std@@@std@@@std@@QEAA@XZ
	??1?$_Alloc_construct_ptr@V?$allocator@U?$_List_node@U?$pair@$$CBV?$basic_string@DU?$char_traits@D@std@@V?$allocator@D@2@@std@@V?$shared_ptr@VLimeGeneric@lime@@@2@@std@@PEAX@std@@@std@@@std@@QEAA@XZ
	??1?$_Alloc_construct_ptr@V?$allocator@U?$_List_node@V?$basic_string@DU?$char_traits@D@std@@V?$allocator@D@2@@std@@PEAX@std@@@std@@@std@@QEAA@XZ
	??1?$_Alloc_construct_ptr@V?$allocator@U?$_Tree_node@IPEAX@std@@@std@@@std@@QEAA@XZ
	??1?$_Func_class@XAEBV?$basic_string@DU?$char_traits@D@std@@V?$allocator@D@2@@std@@AEBV12@AEBV?$vector@EV?$allocator@E@std@@@2@AEBV?$function@$$A6AXHAEBV?$vector@EV?$allocator@E@std@@@std@@@Z@2@@std@@QEAA@XZ
	??1?$_Func_class@XW4CallbackReturn@lime@@V?$basic_string@DU?$char_traits@D@std@@V?$allocator@D@2@@std@@@std@@QEAA@XZ
	??1?$_Hash@V?$_Umap_traits@GU?$sBuffer@$0DA@@lime@@V?$_Uhash_compare@GU?$hash@G@std@@U?$equal_to@G@2@@std@@V?$allocator@U?$pair@$$CBGU?$sBuffer@$0DA@@lime@@@std@@@4@$0A@@std@@@std@@QEAA@XZ
	??1?$_Hash@V?$_Umap_traits@V?$basic_string@DU?$char_traits@D@std@@V?$allocator@D@2@@std@@V?$shared_ptr@V?$DR@UC255@lime@@@lime@@@2@V?$_Uhash_compare@V?$basic_string@DU?$char_traits@D@std@@V?$allocator@D@2@@std@@U?$hash@V?$basic_string@DU?$char_traits@D@std@@V?$allocator@D@2@@std@@@2@U?$equal_to@V?$basic_string@DU?$char_traits@D@std@@V?$allocator@D@2@@std@@@2@@2@V?$allocator@U?$pair@$$CBV?$basic_string@DU?$char_traits@D@std@@V?$allocator@D@2@@std@@V?$shared_ptr@V?$DR@UC255@lime@@@lime@@@2@@std@@@2@$0A@@std@@@std@@QEAA@XZ
	??1?$_Hash@V?$_Umap_traits@V?$basic_string@DU?$char_traits@D@std@@V?$allocator@D@2@@std@@V?$shared_ptr@V?$DR@UC448@lime@@@lime@@@2@V?$_Uhash_compare@V?$basic_string@DU?$char_traits@D@std@@V?$allocator@D@2@@std@@U?$hash@V?$basic_string@DU?$char_traits@D@std@@V?$allocator@D@2@@std@@@2@U?$equal_to@V?$basic_string@DU?$char_traits@D@std@@V?$allocator@D@2@@std@@@2@@2@V?$allocator@U?$pair@$$CBV?$basic_string@DU?$char_traits@D@std@@V?$allocator@D@2@@std@@V?$shared_ptr@V?$DR@UC448@lime@@@lime@@@2@@std@@@2@$0A@@std@@@std@@QEAA@XZ
	??1?$_Hash@V?$_Umap_traits@V?$basic_string@DU?$char_traits@D@std@@V?$allocator@D@2@@std@@V?$shared_ptr@VLimeGeneric@lime@@@2@V?$_Uhash_compare@V?$basic_string@DU?$char_traits@D@std@@V?$allocator@D@2@@std@@U?$hash@V?$basic_string@DU?$char_traits@D@std@@V?$allocator@D@2@@std@@@2@U?$equal_to@V?$basic_string@DU?$char_traits@D@std@@V?$allocator@D@2@@std@@@2@@2@V?$allocator@U?$pair@$$CBV?$basic_string@DU?$char_traits@D@std@@V?$allocator@D@2@@std@@V?$shared_ptr@VLimeGeneric@lime@@@2@@std@@@2@$0A@@std@@@std@@QEAA@XZ
	??1?$_Hash_vec@V?$allocator@V?$_List_unchecked_iterator@V?$_List_val@U?$_List_simple_types@U?$pair@$$CBGU?$sBuffer@$0DA@@lime@@@std@@@std@@@std@@@std@@@std@@@std@@QEAA@XZ
	??1?$_Hash_vec@V?$allocator@V?$_List_unchecked_iterator@V?$_List_val@U?$_List_simple_types@U?$pair@$$CBV?$basic_string@DU?$char_traits@D@std@@V?$allocator@D@2@@std@@V?$shared_ptr@V?$DR@UC255@lime@@@lime@@@2@@std@@@std@@@std@@@std@@@std@@@std@@QEAA@XZ
	??1?$_Hash_vec@V?$allocator@V?$_List_unchecked_iterator@V?$_List_val@U?$_List_simple_types@U?$pair@$$CBV?$basic_string@DU?$char_traits@D@std@@V?$allocator@D@2@@std@@V?$shared_ptr@V?$DR@UC448@lime@@@lime@@@2@@std@@@std@@@std@@@std@@@std@@@std@@QEAA@XZ
	??1?$_Hash_vec@V?$allocator@V?$_List_unchecked_iterator@V?$_List_val@U?$_List_simple_types@U?$pair@$$CBV?$basic_string@DU?$char_traits@D@std@@V?$allocator@D@2@@std@@V?$shared_ptr@VLimeGeneric@lime@@@2@@std@@@std@@@std@@@std@@@std@@@std@@QEAA@XZ
	??1?$_List_node_emplace_op2@V?$allocator@U?$_List_node@U?$pair@$$CBGU?$sBuffer@$0DA@@lime@@@std@@PEAX@std@@@std@@@std@@QEAA@XZ
	??1?$_List_node_emplace_op2@V?$allocator@U?$_List_node@U?$pair@$$CBV?$basic_string@DU?$char_traits@D@std@@V?$allocator@D@2@@std@@V?$shared_ptr@V?$DR@UC255@lime@@@lime@@@2@@std@@PEAX@std@@@std@@@std@@QEAA@XZ
	??1?$_List_node_emplace_op2@V?$allocator@U?$_List_node@U?$pair@$$CBV?$basic_string@DU?$char_traits@D@std@@V?$allocator@D@2@@std@@V?$shared_ptr@V?$DR@UC448@lime@@@lime@@@2@@std@@PEAX@std@@@std@@@std@@QEAA@XZ
	??1?$_List_node_emplace_op2@V?$allocator@U?$_List_node@U?$pair@$$CBV?$basic_string@DU?$char_traits@D@std@@V?$allocator@D@2@@std@@V?$shared_ptr@VLimeGeneric@lime@@@2@@std@@PEAX@std@@@std@@@std@@QEAA@XZ
	??1?$_List_node_insert_op2@V?$allocator@U?$_List_node@V?$basic_string@DU?$char_traits@D@std@@V?$allocator@D@2@@std@@PEAX@std@@@std@@@std@@QEAA@XZ
	??1?$_Ref_count_obj2@$$CBV?$vector@EV?$allocator@E@std@@@std@@@std@@UEAA@XZ
	??1?$_Ref_count_obj2@U?$callbackUserData@UC255@lime@@@lime@@@std@@UEAA@XZ
	??1?$_Ref_count_obj2@U?$callbackUserData@UC448@lime@@@lime@@@std@@UEAA@XZ
	??1?$_Ref_count_obj2@V?$DR@UC255@lime@@@lime@@@std@@UEAA@XZ
	??1?$_Ref_count_obj2@V?$DR@UC448@lime@@@lime@@@std@@UEAA@XZ
	??1?$_Ref_count_obj2@V?$Lime@UC255@lime@@@lime@@@std@@UEAA@XZ
	??1?$_Ref_count_obj2@V?$Lime@UC448@lime@@@lime@@@std@@UEAA@XZ
	??1?$_Ref_count_obj2@V?$bctbx_ECDH@UC255@lime@@@lime@@@std@@UEAA@XZ
	??1?$_Ref_count_obj2@V?$bctbx_ECDH@UC448@lime@@@lime@@@std@@UEAA@XZ
	??1?$_Ref_count_obj2@V?$bctbx_EDDSA@UC255@lime@@@lime@@@std@@UEAA@XZ
	??1?$_Ref_count_obj2@V?$bctbx_EDDSA@UC448@lime@@@lime@@@std@@UEAA@XZ
	??1?$_Ref_count_obj2@VDb@lime@@@std@@UEAA@XZ
	??1?$_Ref_count_obj2@Vbctbx_RNG@lime@@@std@@UEAA@XZ
	??1?$_Ref_count_obj2@Vrecursive_mutex@std@@@std@@UEAA@XZ
	??1?$_Ref_count_obj2@W4CallbackReturn@lime@@@std@@UEAA@XZ
	??1?$_Ref_count_obj2@_K@std@@UEAA@XZ
	??1?$_Tidy_deallocate_guard@V?$basic_string@DU?$char_traits@D@std@@V?$allocator@D@2@@std@@@std@@QEAA@XZ
	??1?$_Uninitialized_backout_al@V?$allocator@U?$ReceiverKeyChain@UC255@lime@@@lime@@@std@@@std@@QEAA@XZ
	??1?$_Uninitialized_backout_al@V?$allocator@U?$ReceiverKeyChain@UC448@lime@@@lime@@@std@@@std@@QEAA@XZ
	??1?$_Uninitialized_backout_al@V?$allocator@U?$RecipientInfos@UC255@lime@@@lime@@@std@@@std@@QEAA@XZ
	??1?$_Uninitialized_backout_al@V?$allocator@U?$RecipientInfos@UC448@lime@@@lime@@@std@@@std@@QEAA@XZ
	??1?$_Uninitialized_backout_al@V?$allocator@U?$X3DH_peerBundle@UC255@lime@@@lime@@@std@@@std@@QEAA@XZ
	??1?$_Uninitialized_backout_al@V?$allocator@U?$X3DH_peerBundle@UC448@lime@@@lime@@@std@@@std@@QEAA@XZ
	??1?$basic_ostringstream@DU?$char_traits@D@std@@V?$allocator@D@2@@std@@UEAA@XZ
	??1?$basic_string@DU?$char_traits@D@std@@V?$allocator@D@2@@std@@QEAA@XZ
	??1?$basic_stringbuf@DU?$char_traits@D@std@@V?$allocator@D@2@@std@@UEAA@XZ
	??1?$bctbx_ECDH@UC255@lime@@@lime@@UEAA@XZ
	??1?$bctbx_ECDH@UC448@lime@@@lime@@UEAA@XZ
	??1?$bctbx_EDDSA@UC255@lime@@@lime@@UEAA@XZ
	??1?$bctbx_EDDSA@UC448@lime@@@lime@@UEAA@XZ
	??1?$callbackUserData@UC255@lime@@@lime@@QEAA@XZ
	??1?$callbackUserData@UC448@lime@@@lime@@QEAA@XZ
	??1?$deque@V?$shared_ptr@U?$callbackUserData@UC255@lime@@@lime@@@std@@V?$allocator@V?$shared_ptr@U?$callbackUserData@UC255@lime@@@lime@@@std@@@2@@std@@QEAA@XZ
	??1?$deque@V?$shared_ptr@U?$callbackUserData@UC448@lime@@@lime@@@std@@V?$allocator@V?$shared_ptr@U?$callbackUserData@UC448@lime@@@lime@@@std@@@2@@std@@QEAA@XZ
	??1?$enable_shared_from_this@V?$Lime@UC255@lime@@@lime@@@std@@IEAA@XZ
	??1?$enable_shared_from_this@V?$Lime@UC448@lime@@@lime@@@std@@IEAA@XZ
	??1?$function@$$A6AXAEBV?$basic_string@DU?$char_traits@D@std@@V?$allocator@D@2@@std@@0AEBV?$vector@EV?$allocator@E@std@@@2@AEBV?$function@$$A6AXHAEBV?$vector@EV?$allocator@E@std@@@std@@@Z@2@@Z@std@@QEAA@XZ
	??1?$function@$$A6AXHAEBV?$vector@EV?$allocator@E@std@@@std@@@Z@std@@QEAA@XZ
	??1?$function@$$A6AXW4CallbackReturn@lime@@V?$basic_string@DU?$char_traits@D@std@@V?$allocator@D@2@@std@@@Z@std@@QEAA@XZ
	??1?$keyExchange@UC255@lime@@@lime@@UEAA@XZ
	??1?$keyExchange@UC448@lime@@@lime@@UEAA@XZ
	??1?$list@U?$pair@$$CBGU?$sBuffer@$0DA@@lime@@@std@@V?$allocator@U?$pair@$$CBGU?$sBuffer@$0DA@@lime@@@std@@@2@@std@@QEAA@XZ
	??1?$list@U?$pair@$$CBV?$basic_string@DU?$char_traits@D@std@@V?$allocator@D@2@@std@@V?$shared_ptr@V?$DR@UC255@lime@@@lime@@@2@@std@@V?$allocator@U?$pair@$$CBV?$basic_string@DU?$char_traits@D@std@@V?$allocator@D@2@@std@@V?$shared_ptr@V?$DR@UC255@lime@@@lime@@@2@@std@@@2@@std@@QEAA@XZ
	??1?$list@U?$pair@$$CBV?$basic_string@DU?$char_traits@D@std@@V?$allocator@D@2@@std@@V?$shared_ptr@V?$DR@UC448@lime@@@lime@@@2@@std@@V?$allocator@U?$pair@$$CBV?$basic_string@DU?$char_traits@D@std@@V?$allocator@D@2@@std@@V?$shared_ptr@V?$DR@UC448@lime@@@lime@@@2@@std@@@2@@std@@QEAA@XZ
	??1?$list@U?$pair@$$CBV?$basic_string@DU?$char_traits@D@std@@V?$allocator@D@2@@std@@V?$shared_ptr@VLimeGeneric@lime@@@2@@std@@V?$allocator@U?$pair@$$CBV?$basic_string@DU?$char_traits@D@std@@V?$allocator@D@2@@std@@V?$shared_ptr@VLimeGeneric@lime@@@2@@std@@@2@@std@@QEAA@XZ
	??1?$list@V?$basic_string@DU?$char_traits@D@std@@V?$allocator@D@2@@std@@V?$allocator@V?$basic_string@DU?$char_traits@D@std@@V?$allocator@D@2@@std@@@2@@std@@QEAA@XZ
	??1?$lock_guard@Vmutex@std@@@std@@QEAA@XZ
	??1?$lock_guard@Vrecursive_mutex@std@@@std@@QEAA@XZ
	??1?$pair@$$CBV?$basic_string@DU?$char_traits@D@std@@V?$allocator@D@2@@std@@V?$shared_ptr@V?$DR@UC255@lime@@@lime@@@2@@std@@QEAA@XZ
	??1?$pair@$$CBV?$basic_string@DU?$char_traits@D@std@@V?$allocator@D@2@@std@@V?$shared_ptr@V?$DR@UC448@lime@@@lime@@@2@@std@@QEAA@XZ
	??1?$pair@$$CBV?$basic_string@DU?$char_traits@D@std@@V?$allocator@D@2@@std@@V?$shared_ptr@VLimeGeneric@lime@@@2@@std@@QEAA@XZ
	??1?$queue@V?$shared_ptr@U?$callbackUserData@UC255@lime@@@lime@@@std@@V?$deque@V?$shared_ptr@U?$callbackUserData@UC255@lime@@@lime@@@std@@V?$allocator@V?$shared_ptr@U?$callbackUserData@UC255@lime@@@lime@@@std@@@2@@2@@std@@QEAA@XZ
	??1?$queue@V?$shared_ptr@U?$callbackUserData@UC448@lime@@@lime@@@std@@V?$deque@V?$shared_ptr@U?$callbackUserData@UC448@lime@@@lime@@@std@@V?$allocator@V?$shared_ptr@U?$callbackUserData@UC448@lime@@@lime@@@std@@@2@@2@@std@@QEAA@XZ
	??1?$rowset@H@soci@@QEAA@XZ
	??1?$rowset@V?$basic_string@DU?$char_traits@D@std@@V?$allocator@D@2@@std@@@soci@@QEAA@XZ
	??1?$rowset@Vrow@soci@@@soci@@QEAA@XZ
	??1?$sBuffer@$0BBJ@@lime@@QEAA@XZ
	??1?$sBuffer@$0CA@@lime@@QEAA@XZ
	??1?$sBuffer@$0DA@@lime@@QEAA@XZ
	??1?$sBuffer@$0KA@@lime@@QEAA@XZ
	??1?$set@IU?$less@I@std@@V?$allocator@I@2@@std@@QEAA@XZ
	??1?$shared_ptr@$$CBV?$basic_string@DU?$char_traits@D@std@@V?$allocator@D@2@@std@@@std@@QEAA@XZ
	??1?$shared_ptr@$$CBV?$vector@EV?$allocator@E@std@@@std@@@std@@QEAA@XZ
	??1?$shared_ptr@U?$callbackUserData@UC255@lime@@@lime@@@std@@QEAA@XZ
	??1?$shared_ptr@U?$callbackUserData@UC448@lime@@@lime@@@std@@QEAA@XZ
	??1?$shared_ptr@V?$DR@UC255@lime@@@lime@@@std@@QEAA@XZ
	??1?$shared_ptr@V?$DR@UC448@lime@@@lime@@@std@@QEAA@XZ
	??1?$shared_ptr@V?$Lime@UC255@lime@@@lime@@@std@@QEAA@XZ
	??1?$shared_ptr@V?$Lime@UC448@lime@@@lime@@@std@@QEAA@XZ
	??1?$shared_ptr@V?$Signature@UC255@lime@@@lime@@@std@@QEAA@XZ
	??1?$shared_ptr@V?$Signature@UC448@lime@@@lime@@@std@@QEAA@XZ
	??1?$shared_ptr@V?$keyExchange@UC255@lime@@@lime@@@std@@QEAA@XZ
	??1?$shared_ptr@V?$keyExchange@UC448@lime@@@lime@@@std@@QEAA@XZ
	??1?$shared_ptr@V?$vector@EV?$allocator@E@std@@@std@@@std@@QEAA@XZ
	??1?$shared_ptr@V?$vector@URecipientData@lime@@V?$allocator@URecipientData@lime@@@std@@@std@@@std@@QEAA@XZ
	??1?$shared_ptr@VDb@lime@@@std@@QEAA@XZ
	??1?$shared_ptr@VLimeGeneric@lime@@@std@@QEAA@XZ
	??1?$shared_ptr@VRNG@lime@@@std@@QEAA@XZ
	??1?$shared_ptr@Vrecursive_mutex@std@@@std@@QEAA@XZ
	??1?$shared_ptr@W4CallbackReturn@lime@@@std@@QEAA@XZ
	??1?$shared_ptr@_K@std@@QEAA@XZ
	??1?$type_ptr@Vinto_type_base@details@soci@@@details@soci@@QEAA@XZ
	??1?$type_ptr@Vuse_type_base@details@soci@@@details@soci@@QEAA@XZ
	??1?$unique_lock@Vmutex@std@@@std@@QEAA@XZ
	??1?$unique_ptr@HU?$default_delete@H@std@@@std@@QEAA@XZ
	??1?$unique_ptr@V?$basic_string@DU?$char_traits@D@std@@V?$allocator@D@2@@std@@U?$default_delete@V?$basic_string@DU?$char_traits@D@std@@V?$allocator@D@2@@std@@@2@@std@@QEAA@XZ
	??1?$unique_ptr@Vrow@soci@@U?$default_delete@Vrow@soci@@@std@@@std@@QEAA@XZ
	??1?$unique_ptr@Vstatement@soci@@U?$default_delete@Vstatement@soci@@@std@@@std@@QEAA@XZ
	??1?$unordered_map@V?$basic_string@DU?$char_traits@D@std@@V?$allocator@D@2@@std@@V?$shared_ptr@V?$DR@UC255@lime@@@lime@@@2@U?$hash@V?$basic_string@DU?$char_traits@D@std@@V?$allocator@D@2@@std@@@2@U?$equal_to@V?$basic_string@DU?$char_traits@D@std@@V?$allocator@D@2@@std@@@2@V?$allocator@U?$pair@$$CBV?$basic_string@DU?$char_traits@D@std@@V?$allocator@D@2@@std@@V?$shared_ptr@V?$DR@UC255@lime@@@lime@@@2@@std@@@2@@std@@QEAA@XZ
	??1?$unordered_map@V?$basic_string@DU?$char_traits@D@std@@V?$allocator@D@2@@std@@V?$shared_ptr@V?$DR@UC448@lime@@@lime@@@2@U?$hash@V?$basic_string@DU?$char_traits@D@std@@V?$allocator@D@2@@std@@@2@U?$equal_to@V?$basic_string@DU?$char_traits@D@std@@V?$allocator@D@2@@std@@@2@V?$allocator@U?$pair@$$CBV?$basic_string@DU?$char_traits@D@std@@V?$allocator@D@2@@std@@V?$shared_ptr@V?$DR@UC448@lime@@@lime@@@2@@std@@@2@@std@@QEAA@XZ
	??1?$unordered_map@V?$basic_string@DU?$char_traits@D@std@@V?$allocator@D@2@@std@@V?$shared_ptr@VLimeGeneric@lime@@@2@U?$hash@V?$basic_string@DU?$char_traits@D@std@@V?$allocator@D@2@@std@@@2@U?$equal_to@V?$basic_string@DU?$char_traits@D@std@@V?$allocator@D@2@@std@@@2@V?$allocator@U?$pair@$$CBV?$basic_string@DU?$char_traits@D@std@@V?$allocator@D@2@@std@@V?$shared_ptr@VLimeGeneric@lime@@@2@@std@@@2@@std@@QEAA@XZ
	??1?$vector@EV?$allocator@E@std@@@std@@QEAA@XZ
	??1?$vector@IV?$allocator@I@std@@@std@@QEAA@XZ
	??1?$vector@U?$ReceiverKeyChain@UC255@lime@@@lime@@V?$allocator@U?$ReceiverKeyChain@UC255@lime@@@lime@@@std@@@std@@QEAA@XZ
	??1?$vector@U?$ReceiverKeyChain@UC448@lime@@@lime@@V?$allocator@U?$ReceiverKeyChain@UC448@lime@@@lime@@@std@@@std@@QEAA@XZ
	??1?$vector@U?$RecipientInfos@UC255@lime@@@lime@@V?$allocator@U?$RecipientInfos@UC255@lime@@@lime@@@std@@@std@@QEAA@XZ
	??1?$vector@U?$RecipientInfos@UC448@lime@@@lime@@V?$allocator@U?$RecipientInfos@UC448@lime@@@lime@@@std@@@std@@QEAA@XZ
	??1?$vector@U?$X3DH_peerBundle@UC255@lime@@@lime@@V?$allocator@U?$X3DH_peerBundle@UC255@lime@@@lime@@@std@@@std@@QEAA@XZ
	??1?$vector@U?$X3DH_peerBundle@UC448@lime@@@lime@@V?$allocator@U?$X3DH_peerBundle@UC448@lime@@@lime@@@std@@@std@@QEAA@XZ
	??1?$vector@V?$X@UC255@lime@@$0A@@lime@@V?$allocator@V?$X@UC255@lime@@$0A@@lime@@@std@@@std@@QEAA@XZ
	??1?$vector@V?$X@UC448@lime@@$0A@@lime@@V?$allocator@V?$X@UC448@lime@@$0A@@lime@@@std@@@std@@QEAA@XZ
	??1?$vector@V?$basic_string@DU?$char_traits@D@std@@V?$allocator@D@2@@std@@V?$allocator@V?$basic_string@DU?$char_traits@D@std@@V?$allocator@D@2@@std@@@2@@std@@QEAA@XZ
	??1?$vector@V?$shared_ptr@V?$DR@UC255@lime@@@lime@@@std@@V?$allocator@V?$shared_ptr@V?$DR@UC255@lime@@@lime@@@std@@@2@@std@@QEAA@XZ
	??1?$vector@V?$shared_ptr@V?$DR@UC448@lime@@@lime@@@std@@V?$allocator@V?$shared_ptr@V?$DR@UC448@lime@@@lime@@@std@@@2@@std@@QEAA@XZ
	??1?$weak_ptr@V?$Lime@UC255@lime@@@lime@@@std@@QEAA@XZ
	??1?$weak_ptr@V?$Lime@UC448@lime@@@lime@@@std@@QEAA@XZ
	??1LimeGeneric@lime@@UEAA@XZ
	??1RNG@lime@@UEAA@XZ
	??1RecipientData@lime@@QEAA@XZ
	??1_Ref_count_base@std@@UEAA@XZ
	??1_Sentry_base@?$basic_ostream@DU?$char_traits@D@std@@@std@@QEAA@XZ
	??1bad_array_new_length@std@@UEAA@XZ
	??1bad_cast@std@@UEAA@XZ
	??1bad_weak_ptr@std@@UEAA@XZ
	??1error_category@std@@UEAA@XZ
	??1exception@std@@UEAA@XZ
	??1into_type_base@details@soci@@UEAA@XZ
	??1mutex@std@@QEAA@XZ
	??1pumpstream@@QEAA@XZ
	??1sentry@?$basic_ostream@DU?$char_traits@D@std@@@std@@QEAA@XZ
	??1statement@soci@@QEAA@XZ
	??1system_error@std@@UEAA@XZ
	??1use_type_base@details@soci@@UEAA@XZ
	??4?$shared_ptr@V?$DR@UC255@lime@@@lime@@@std@@QEAAAEAV01@$$QEAV01@@Z
	??4?$shared_ptr@V?$DR@UC448@lime@@@lime@@@std@@QEAAAEAV01@$$QEAV01@@Z
	??4?$vector@EV?$allocator@E@std@@@std@@QEAAAEAV01@$$QEAV01@@Z
	??8?$DSApair@UC255@lime@@@lime@@QEBA_NV01@@Z
	??8?$DSApair@UC448@lime@@@lime@@QEBA_NV01@@Z
	??8?$Xpair@UC255@lime@@@lime@@QEBA_NV01@@Z
	??8?$Xpair@UC448@lime@@@lime@@QEBA_NV01@@Z
	??R?$_Func_class@XW4CallbackReturn@lime@@V?$basic_string@DU?$char_traits@D@std@@V?$allocator@D@2@@std@@@std@@QEBAXW4CallbackReturn@lime@@V?$basic_string@DU?$char_traits@D@std@@V?$allocator@D@2@@1@@Z
	??_7?$Lime@UC255@lime@@@lime@@6B@
	??_7?$Lime@UC448@lime@@@lime@@6B@
	??_7?$Signature@UC255@lime@@@lime@@6B@
	??_7?$Signature@UC448@lime@@@lime@@6B@
	??_7?$_Func_impl_no_alloc@V<lambda_2729ea627d046d894fd451ab504ba8ae>@@XHAEBV?$vector@EV?$allocator@E@std@@@std@@@std@@6B@
	??_7?$_Func_impl_no_alloc@V<lambda_efc32634edcf6ab1e929fb35f3eb1ebf>@@XHAEBV?$vector@EV?$allocator@E@std@@@std@@@std@@6B@
	??_7?$_Ref_count_obj2@$$CBV?$vector@EV?$allocator@E@std@@@std@@@std@@6B@
	??_7?$_Ref_count_obj2@U?$callbackUserData@UC255@lime@@@lime@@@std@@6B@
	??_7?$_Ref_count_obj2@U?$callbackUserData@UC448@lime@@@lime@@@std@@6B@
	??_7?$_Ref_count_obj2@V?$DR@UC255@lime@@@lime@@@std@@6B@
	??_7?$_Ref_count_obj2@V?$DR@UC448@lime@@@lime@@@std@@6B@
	??_7?$_Ref_count_obj2@V?$Lime@UC255@lime@@@lime@@@std@@6B@
	??_7?$_Ref_count_obj2@V?$Lime@UC448@lime@@@lime@@@std@@6B@
	??_7?$_Ref_count_obj2@V?$bctbx_ECDH@UC255@lime@@@lime@@@std@@6B@
	??_7?$_Ref_count_obj2@V?$bctbx_ECDH@UC448@lime@@@lime@@@std@@6B@
	??_7?$_Ref_count_obj2@V?$bctbx_EDDSA@UC255@lime@@@lime@@@std@@6B@
	??_7?$_Ref_count_obj2@V?$bctbx_EDDSA@UC448@lime@@@lime@@@std@@6B@
	??_7?$_Ref_count_obj2@VDb@lime@@@std@@6B@
	??_7?$_Ref_count_obj2@Vbctbx_RNG@lime@@@std@@6B@
	??_7?$_Ref_count_obj2@Vrecursive_mutex@std@@@std@@6B@
	??_7?$_Ref_count_obj2@W4CallbackReturn@lime@@@std@@6B@
	??_7?$_Ref_count_obj2@_K@std@@6B@
	??_7?$basic_ostringstream@DU?$char_traits@D@std@@V?$allocator@D@2@@std@@6B@
	??_7?$basic_stringbuf@DU?$char_traits@D@std@@V?$allocator@D@2@@std@@6B@
	??_7?$bctbx_ECDH@UC255@lime@@@lime@@6B@
	??_7?$bctbx_ECDH@UC448@lime@@@lime@@6B@
	??_7?$bctbx_EDDSA@UC255@lime@@@lime@@6B@
	??_7?$bctbx_EDDSA@UC448@lime@@@lime@@6B@
	??_7?$conversion_use_type@E@details@soci@@6B@
	??_7?$into_type@G@details@soci@@6B@
	??_7?$into_type@H@details@soci@@6B@
	??_7?$into_type@I@details@soci@@6B@
	??_7?$into_type@J@details@soci@@6B@
	??_7?$into_type@V?$basic_string@DU?$char_traits@D@std@@V?$allocator@D@2@@std@@@details@soci@@6B@
	??_7?$into_type@Vblob@soci@@@details@soci@@6B@
	??_7?$into_type@Vrow@soci@@@details@soci@@6B@
	??_7?$into_type@_J@details@soci@@6B@
	??_7?$keyExchange@UC255@lime@@@lime@@6B@
	??_7?$keyExchange@UC448@lime@@@lime@@6B@
	??_7?$use_type@G@details@soci@@6B@
	??_7?$use_type@H@details@soci@@6B@
	??_7?$use_type@I@details@soci@@6B@
	??_7?$use_type@J@details@soci@@6B@
	??_7?$use_type@V?$basic_string@DU?$char_traits@D@std@@V?$allocator@D@2@@std@@@details@soci@@6B@
	??_7?$use_type@Vblob@soci@@@details@soci@@6B@
	??_7?$use_type@_J@details@soci@@6B@
	??_7LimeGeneric@lime@@6B@
	??_7RNG@lime@@6B@
	??_7_Generic_error_category@std@@6B@
	??_7_System_error@std@@6B@
	??_7bad_alloc@std@@6B@
	??_7bad_array_new_length@std@@6B@
	??_7bad_cast@std@@6B@
	??_7bad_weak_ptr@std@@6B@
	??_7bctbx_RNG@lime@@6B@
	??_7exception@std@@6B@
	??_7into_type_base@details@soci@@6B@
	??_7runtime_error@std@@6B@
	??_7standard_into_type@details@soci@@6B@
	??_7standard_use_type@details@soci@@6B@
	??_7system_error@std@@6B@
	??_7use_type_base@details@soci@@6B@
	??_D?$basic_ostringstream@DU?$char_traits@D@std@@V?$allocator@D@2@@std@@QEAAXXZ
	?DHRatchet@?$DR@UC255@lime@@@lime@@AEAAXAEBV?$X@UC255@lime@@$0A@@2@@Z
	?DHRatchet@?$DR@UC448@lime@@@lime@@AEAAXAEBV?$X@UC448@lime@@$0A@@2@@Z
	?DHs@?$DRHeader@UC255@lime@@@double_ratchet_protocol@lime@@QEBAAEBV?$X@UC255@lime@@$0A@@3@XZ
	?DHs@?$DRHeader@UC448@lime@@@double_ratchet_protocol@lime@@QEBAAEBV?$X@UC448@lime@@$0A@@3@XZ
	?Ns@?$DRHeader@UC255@lime@@@double_ratchet_protocol@lime@@QEBAGXZ
	?Ns@?$DRHeader@UC448@lime@@@double_ratchet_protocol@lime@@QEBAGXZ
	?PN@?$DRHeader@UC255@lime@@@double_ratchet_protocol@lime@@QEBAGXZ
	?PN@?$DRHeader@UC448@lime@@@double_ratchet_protocol@lime@@QEBAGXZ
	?X3DH_generate_OPks@?$Lime@UC255@lime@@@lime@@AEAAXAEAV?$vector@V?$X@UC255@lime@@$0A@@lime@@V?$allocator@V?$X@UC255@lime@@$0A@@lime@@@std@@@std@@AEAV?$vector@IV?$allocator@I@std@@@4@G_N@Z
	?X3DH_generate_OPks@?$Lime@UC448@lime@@@lime@@AEAAXAEAV?$vector@V?$X@UC448@lime@@$0A@@lime@@V?$allocator@V?$X@UC448@lime@@$0A@@lime@@@std@@@std@@AEAV?$vector@IV?$allocator@I@std@@@4@G_N@Z
	?X3DH_generate_SPk@?$Lime@UC255@lime@@@lime@@AEAAXAEAV?$X@UC255@lime@@$0A@@2@AEAV?$DSA@UC255@lime@@$01@2@AEAI_N@Z
	?X3DH_generate_SPk@?$Lime@UC448@lime@@@lime@@AEAAXAEAV?$X@UC448@lime@@$0A@@2@AEAV?$DSA@UC448@lime@@$01@2@AEAI_N@Z
	?X3DH_get_OPk@?$Lime@UC255@lime@@@lime@@AEAAXIAEAV?$Xpair@UC255@lime@@@2@@Z
	?X3DH_get_OPk@?$Lime@UC448@lime@@@lime@@AEAAXIAEAV?$Xpair@UC448@lime@@@2@@Z
	?X3DH_get_SPk@?$Lime@UC255@lime@@@lime@@AEAAXIAEAV?$Xpair@UC255@lime@@@2@@Z
	?X3DH_get_SPk@?$Lime@UC448@lime@@@lime@@AEAAXIAEAV?$Xpair@UC448@lime@@@2@@Z
	?X3DH_init_receiver_session@?$Lime@UC255@lime@@@lime@@AEAA?AV?$shared_ptr@V?$DR@UC255@lime@@@lime@@@std@@V?$vector@EV?$allocator@E@std@@@4@AEBV?$basic_string@DU?$char_traits@D@std@@V?$allocator@D@2@@4@@Z
	?X3DH_init_receiver_session@?$Lime@UC448@lime@@@lime@@AEAA?AV?$shared_ptr@V?$DR@UC448@lime@@@lime@@@std@@V?$vector@EV?$allocator@E@std@@@4@AEBV?$basic_string@DU?$char_traits@D@std@@V?$allocator@D@2@@4@@Z
	?X3DH_init_sender_session@?$Lime@UC255@lime@@@lime@@AEAAXAEBV?$vector@U?$X3DH_peerBundle@UC255@lime@@@lime@@V?$allocator@U?$X3DH_peerBundle@UC255@lime@@@lime@@@std@@@std@@@Z
	?X3DH_init_sender_session@?$Lime@UC448@lime@@@lime@@AEAAXAEBV?$vector@U?$X3DH_peerBundle@UC448@lime@@@lime@@V?$allocator@U?$X3DH_peerBundle@UC448@lime@@@lime@@@std@@@std@@@Z
	?X3DH_updateOPkStatus@?$Lime@UC255@lime@@@lime@@AEAAXAEBV?$vector@IV?$allocator@I@std@@@std@@@Z
	?X3DH_updateOPkStatus@?$Lime@UC448@lime@@@lime@@AEAAXAEBV?$vector@IV?$allocator@I@std@@@std@@@Z
	?_Assign_grow@?$_Hash_vec@V?$allocator@V?$_List_unchecked_iterator@V?$_List_val@U?$_List_simple_types@U?$pair@$$CBGU?$sBuffer@$0DA@@lime@@@std@@@std@@@std@@@std@@@std@@@std@@QEAAX_KV?$_List_unchecked_iterator@V?$_List_val@U?$_List_simple_types@U?$pair@$$CBGU?$sBuffer@$0DA@@lime@@@std@@@std@@@std@@@2@@Z
	?_Assign_grow@?$_Hash_vec@V?$allocator@V?$_List_unchecked_iterator@V?$_List_val@U?$_List_simple_types@U?$pair@$$CBV?$basic_string@DU?$char_traits@D@std@@V?$allocator@D@2@@std@@V?$shared_ptr@V?$DR@UC255@lime@@@lime@@@2@@std@@@std@@@std@@@std@@@std@@@std@@QEAAX_KV?$_List_unchecked_iterator@V?$_List_val@U?$_List_simple_types@U?$pair@$$CBV?$basic_string@DU?$char_traits@D@std@@V?$allocator@D@2@@std@@V?$shared_ptr@V?$DR@UC255@lime@@@lime@@@2@@std@@@std@@@std@@@2@@Z
	?_Assign_grow@?$_Hash_vec@V?$allocator@V?$_List_unchecked_iterator@V?$_List_val@U?$_List_simple_types@U?$pair@$$CBV?$basic_string@DU?$char_traits@D@std@@V?$allocator@D@2@@std@@V?$shared_ptr@V?$DR@UC448@lime@@@lime@@@2@@std@@@std@@@std@@@std@@@std@@@std@@QEAAX_KV?$_List_unchecked_iterator@V?$_List_val@U?$_List_simple_types@U?$pair@$$CBV?$basic_string@DU?$char_traits@D@std@@V?$allocator@D@2@@std@@V?$shared_ptr@V?$DR@UC448@lime@@@lime@@@2@@std@@@std@@@std@@@2@@Z
	?_Assign_grow@?$_Hash_vec@V?$allocator@V?$_List_unchecked_iterator@V?$_List_val@U?$_List_simple_types@U?$pair@$$CBV?$basic_string@DU?$char_traits@D@std@@V?$allocator@D@2@@std@@V?$shared_ptr@VLimeGeneric@lime@@@2@@std@@@std@@@std@@@std@@@std@@@std@@QEAAX_KV?$_List_unchecked_iterator@V?$_List_val@U?$_List_simple_types@U?$pair@$$CBV?$basic_string@DU?$char_traits@D@std@@V?$allocator@D@2@@std@@V?$shared_ptr@VLimeGeneric@lime@@@2@@std@@@std@@@std@@@2@@Z
	?_Buy_nonzero@?$vector@EV?$allocator@E@std@@@std@@AEAAX_K@Z
	?_Change_array@?$vector@EV?$allocator@E@std@@@std@@AEAAXQEAE_K1@Z
	?_Change_array@?$vector@IV?$allocator@I@std@@@std@@AEAAXQEAI_K1@Z
	?_Change_array@?$vector@U?$RecipientInfos@UC255@lime@@@lime@@V?$allocator@U?$RecipientInfos@UC255@lime@@@lime@@@std@@@std@@AEAAXQEAU?$RecipientInfos@UC255@lime@@@lime@@_K1@Z
	?_Change_array@?$vector@U?$RecipientInfos@UC448@lime@@@lime@@V?$allocator@U?$RecipientInfos@UC448@lime@@@lime@@@std@@@std@@AEAAXQEAU?$RecipientInfos@UC448@lime@@@lime@@_K1@Z
	?_Change_array@?$vector@U?$X3DH_peerBundle@UC255@lime@@@lime@@V?$allocator@U?$X3DH_peerBundle@UC255@lime@@@lime@@@std@@@std@@AEAAXQEAU?$X3DH_peerBundle@UC255@lime@@@lime@@_K1@Z
	?_Change_array@?$vector@U?$X3DH_peerBundle@UC448@lime@@@lime@@V?$allocator@U?$X3DH_peerBundle@UC448@lime@@@lime@@@std@@@std@@AEAAXQEAU?$X3DH_peerBundle@UC448@lime@@@lime@@_K1@Z
	?_Change_array@?$vector@V?$X@UC255@lime@@$0A@@lime@@V?$allocator@V?$X@UC255@lime@@$0A@@lime@@@std@@@std@@AEAAXQEAV?$X@UC255@lime@@$0A@@lime@@_K1@Z
	?_Change_array@?$vector@V?$X@UC448@lime@@$0A@@lime@@V?$allocator@V?$X@UC448@lime@@$0A@@lime@@@std@@@std@@AEAAXQEAV?$X@UC448@lime@@$0A@@lime@@_K1@Z
	?_Clear_and_reserve_geometric@?$vector@EV?$allocator@E@std@@@std@@AEAAX_K@Z
	?_Copy@?$_Func_impl_no_alloc@V<lambda_2729ea627d046d894fd451ab504ba8ae>@@XHAEBV?$vector@EV?$allocator@E@std@@@std@@@std@@EEBAPEAV?$_Func_base@XHAEBV?$vector@EV?$allocator@E@std@@@std@@@2@PEAX@Z
	?_Copy@?$_Func_impl_no_alloc@V<lambda_efc32634edcf6ab1e929fb35f3eb1ebf>@@XHAEBV?$vector@EV?$allocator@E@std@@@std@@@std@@EEBAPEAV?$_Func_base@XHAEBV?$vector@EV?$allocator@E@std@@@std@@@2@PEAX@Z
	?_Decref@_Ref_count_base@std@@QEAAXXZ
	?_Delete_this@?$_Func_impl_no_alloc@V<lambda_2729ea627d046d894fd451ab504ba8ae>@@XHAEBV?$vector@EV?$allocator@E@std@@@std@@@std@@EEAAX_N@Z
	?_Delete_this@?$_Func_impl_no_alloc@V<lambda_efc32634edcf6ab1e929fb35f3eb1ebf>@@XHAEBV?$vector@EV?$allocator@E@std@@@std@@@std@@EEAAX_N@Z
	?_Delete_this@?$_Ref_count_obj2@$$CBV?$vector@EV?$allocator@E@std@@@std@@@std@@EEAAXXZ
	?_Delete_this@?$_Ref_count_obj2@U?$callbackUserData@UC255@lime@@@lime@@@std@@EEAAXXZ
	?_Delete_this@?$_Ref_count_obj2@U?$callbackUserData@UC448@lime@@@lime@@@std@@EEAAXXZ
	?_Delete_this@?$_Ref_count_obj2@V?$DR@UC255@lime@@@lime@@@std@@EEAAXXZ
	?_Delete_this@?$_Ref_count_obj2@V?$DR@UC448@lime@@@lime@@@std@@EEAAXXZ
	?_Delete_this@?$_Ref_count_obj2@V?$Lime@UC255@lime@@@lime@@@std@@EEAAXXZ
	?_Delete_this@?$_Ref_count_obj2@V?$Lime@UC448@lime@@@lime@@@std@@EEAAXXZ
	?_Delete_this@?$_Ref_count_obj2@V?$bctbx_ECDH@UC255@lime@@@lime@@@std@@EEAAXXZ
	?_Delete_this@?$_Ref_count_obj2@V?$bctbx_ECDH@UC448@lime@@@lime@@@std@@EEAAXXZ
	?_Delete_this@?$_Ref_count_obj2@V?$bctbx_EDDSA@UC255@lime@@@lime@@@std@@EEAAXXZ
	?_Delete_this@?$_Ref_count_obj2@V?$bctbx_EDDSA@UC448@lime@@@lime@@@std@@EEAAXXZ
	?_Delete_this@?$_Ref_count_obj2@VDb@lime@@@std@@EEAAXXZ
	?_Delete_this@?$_Ref_count_obj2@Vbctbx_RNG@lime@@@std@@EEAAXXZ
	?_Delete_this@?$_Ref_count_obj2@Vrecursive_mutex@std@@@std@@EEAAXXZ
	?_Delete_this@?$_Ref_count_obj2@W4CallbackReturn@lime@@@std@@EEAAXXZ
	?_Delete_this@?$_Ref_count_obj2@_K@std@@EEAAXXZ
	?_Destroy@?$_Ref_count_obj2@$$CBV?$vector@EV?$allocator@E@std@@@std@@@std@@EEAAXXZ
	?_Destroy@?$_Ref_count_obj2@U?$callbackUserData@UC255@lime@@@lime@@@std@@EEAAXXZ
	?_Destroy@?$_Ref_count_obj2@U?$callbackUserData@UC448@lime@@@lime@@@std@@EEAAXXZ
	?_Destroy@?$_Ref_count_obj2@V?$DR@UC255@lime@@@lime@@@std@@EEAAXXZ
	?_Destroy@?$_Ref_count_obj2@V?$DR@UC448@lime@@@lime@@@std@@EEAAXXZ
	?_Destroy@?$_Ref_count_obj2@V?$Lime@UC255@lime@@@lime@@@std@@EEAAXXZ
	?_Destroy@?$_Ref_count_obj2@V?$Lime@UC448@lime@@@lime@@@std@@EEAAXXZ
	?_Destroy@?$_Ref_count_obj2@V?$bctbx_ECDH@UC255@lime@@@lime@@@std@@EEAAXXZ
	?_Destroy@?$_Ref_count_obj2@V?$bctbx_ECDH@UC448@lime@@@lime@@@std@@EEAAXXZ
	?_Destroy@?$_Ref_count_obj2@V?$bctbx_EDDSA@UC255@lime@@@lime@@@std@@EEAAXXZ
	?_Destroy@?$_Ref_count_obj2@V?$bctbx_EDDSA@UC448@lime@@@lime@@@std@@EEAAXXZ
	?_Destroy@?$_Ref_count_obj2@VDb@lime@@@std@@EEAAXXZ
	?_Destroy@?$_Ref_count_obj2@Vbctbx_RNG@lime@@@std@@EEAAXXZ
	?_Destroy@?$_Ref_count_obj2@Vrecursive_mutex@std@@@std@@EEAAXXZ
	?_Destroy@?$_Ref_count_obj2@W4CallbackReturn@lime@@@std@@EEAAXXZ
	?_Destroy@?$_Ref_count_obj2@_K@std@@EEAAXXZ
	?_Destroy@?$vector@U?$ReceiverKeyChain@UC255@lime@@@lime@@V?$allocator@U?$ReceiverKeyChain@UC255@lime@@@lime@@@std@@@std@@AEAAXPEAU?$ReceiverKeyChain@UC255@lime@@@lime@@0@Z
	?_Destroy@?$vector@U?$ReceiverKeyChain@UC448@lime@@@lime@@V?$allocator@U?$ReceiverKeyChain@UC448@lime@@@lime@@@std@@@std@@AEAAXPEAU?$ReceiverKeyChain@UC448@lime@@@lime@@0@Z
	?_Destroy@?$vector@U?$RecipientInfos@UC255@lime@@@lime@@V?$allocator@U?$RecipientInfos@UC255@lime@@@lime@@@std@@@std@@AEAAXPEAU?$RecipientInfos@UC255@lime@@@lime@@0@Z
	?_Destroy@?$vector@U?$RecipientInfos@UC448@lime@@@lime@@V?$allocator@U?$RecipientInfos@UC448@lime@@@lime@@@std@@@std@@AEAAXPEAU?$RecipientInfos@UC448@lime@@@lime@@0@Z
	?_Destroy@?$vector@U?$X3DH_peerBundle@UC255@lime@@@lime@@V?$allocator@U?$X3DH_peerBundle@UC255@lime@@@lime@@@std@@@std@@AEAAXPEAU?$X3DH_peerBundle@UC255@lime@@@lime@@0@Z
	?_Destroy@?$vector@U?$X3DH_peerBundle@UC448@lime@@@lime@@V?$allocator@U?$X3DH_peerBundle@UC448@lime@@@lime@@@std@@@std@@AEAAXPEAU?$X3DH_peerBundle@UC448@lime@@@lime@@0@Z
	?_Destroy@?$vector@V?$X@UC255@lime@@$0A@@lime@@V?$allocator@V?$X@UC255@lime@@$0A@@lime@@@std@@@std@@AEAAXPEAV?$X@UC255@lime@@$0A@@lime@@0@Z
	?_Destroy@?$vector@V?$X@UC448@lime@@$0A@@lime@@V?$allocator@V?$X@UC448@lime@@$0A@@lime@@@std@@@std@@AEAAXPEAV?$X@UC448@lime@@$0A@@lime@@0@Z
	?_Destroy@?$vector@V?$basic_string@DU?$char_traits@D@std@@V?$allocator@D@2@@std@@V?$allocator@V?$basic_string@DU?$char_traits@D@std@@V?$allocator@D@2@@std@@@2@@std@@AEAAXPEAV?$basic_string@DU?$char_traits@D@std@@V?$allocator@D@2@@2@0@Z
	?_Destroy@?$vector@V?$shared_ptr@V?$DR@UC255@lime@@@lime@@@std@@V?$allocator@V?$shared_ptr@V?$DR@UC255@lime@@@lime@@@std@@@2@@std@@AEAAXPEAV?$shared_ptr@V?$DR@UC255@lime@@@lime@@@2@0@Z
	?_Destroy@?$vector@V?$shared_ptr@V?$DR@UC448@lime@@@lime@@@std@@V?$allocator@V?$shared_ptr@V?$DR@UC448@lime@@@lime@@@std@@@2@@std@@AEAAXPEAV?$shared_ptr@V?$DR@UC448@lime@@@lime@@@2@0@Z
	?_Do_call@?$_Func_impl_no_alloc@V<lambda_2729ea627d046d894fd451ab504ba8ae>@@XHAEBV?$vector@EV?$allocator@E@std@@@std@@@std@@EEAAX$$QEAHAEBV?$vector@EV?$allocator@E@std@@@2@@Z
	?_Do_call@?$_Func_impl_no_alloc@V<lambda_efc32634edcf6ab1e929fb35f3eb1ebf>@@XHAEBV?$vector@EV?$allocator@E@std@@@std@@@std@@EEAAX$$QEAHAEBV?$vector@EV?$allocator@E@std@@@2@@Z
	?_Forced_rehash@?$_Hash@V?$_Umap_traits@GU?$sBuffer@$0DA@@lime@@V?$_Uhash_compare@GU?$hash@G@std@@U?$equal_to@G@2@@std@@V?$allocator@U?$pair@$$CBGU?$sBuffer@$0DA@@lime@@@std@@@4@$0A@@std@@@std@@IEAAX_K@Z
	?_Forced_rehash@?$_Hash@V?$_Umap_traits@V?$basic_string@DU?$char_traits@D@std@@V?$allocator@D@2@@std@@V?$shared_ptr@V?$DR@UC255@lime@@@lime@@@2@V?$_Uhash_compare@V?$basic_string@DU?$char_traits@D@std@@V?$allocator@D@2@@std@@U?$hash@V?$basic_string@DU?$char_traits@D@std@@V?$allocator@D@2@@std@@@2@U?$equal_to@V?$basic_string@DU?$char_traits@D@std@@V?$allocator@D@2@@std@@@2@@2@V?$allocator@U?$pair@$$CBV?$basic_string@DU?$char_traits@D@std@@V?$allocator@D@2@@std@@V?$shared_ptr@V?$DR@UC255@lime@@@lime@@@2@@std@@@2@$0A@@std@@@std@@IEAAX_K@Z
	?_Forced_rehash@?$_Hash@V?$_Umap_traits@V?$basic_string@DU?$char_traits@D@std@@V?$allocator@D@2@@std@@V?$shared_ptr@V?$DR@UC448@lime@@@lime@@@2@V?$_Uhash_compare@V?$basic_string@DU?$char_traits@D@std@@V?$allocator@D@2@@std@@U?$hash@V?$basic_string@DU?$char_traits@D@std@@V?$allocator@D@2@@std@@@2@U?$equal_to@V?$basic_string@DU?$char_traits@D@std@@V?$allocator@D@2@@std@@@2@@2@V?$allocator@U?$pair@$$CBV?$basic_string@DU?$char_traits@D@std@@V?$allocator@D@2@@std@@V?$shared_ptr@V?$DR@UC448@lime@@@lime@@@2@@std@@@2@$0A@@std@@@std@@IEAAX_K@Z
	?_Forced_rehash@?$_Hash@V?$_Umap_traits@V?$basic_string@DU?$char_traits@D@std@@V?$allocator@D@2@@std@@V?$shared_ptr@VLimeGeneric@lime@@@2@V?$_Uhash_compare@V?$basic_string@DU?$char_traits@D@std@@V?$allocator@D@2@@std@@U?$hash@V?$basic_string@DU?$char_traits@D@std@@V?$allocator@D@2@@std@@@2@U?$equal_to@V?$basic_string@DU?$char_traits@D@std@@V?$allocator@D@2@@std@@@2@@2@V?$allocator@U?$pair@$$CBV?$basic_string@DU?$char_traits@D@std@@V?$allocator@D@2@@std@@V?$shared_ptr@VLimeGeneric@lime@@@2@@std@@@2@$0A@@std@@@std@@IEAAX_K@Z
	?_Get@?$_Func_impl_no_alloc@V<lambda_2729ea627d046d894fd451ab504ba8ae>@@XHAEBV?$vector@EV?$allocator@E@std@@@std@@@std@@EEBAPEBXXZ
	?_Get@?$_Func_impl_no_alloc@V<lambda_efc32634edcf6ab1e929fb35f3eb1ebf>@@XHAEBV?$vector@EV?$allocator@E@std@@@std@@@std@@EEBAPEBXXZ
	?_Get_deleter@_Ref_count_base@std@@UEBAPEAXAEBVtype_info@@@Z
	?_Getal@?$vector@EV?$allocator@E@std@@@std@@AEAAAEAV?$allocator@E@2@XZ
	?_Getal@?$vector@IV?$allocator@I@std@@@std@@AEAAAEAV?$allocator@I@2@XZ
	?_Getal@?$vector@V?$X@UC255@lime@@$0A@@lime@@V?$allocator@V?$X@UC255@lime@@$0A@@lime@@@std@@@std@@AEAAAEAV?$allocator@V?$X@UC255@lime@@$0A@@lime@@@2@XZ
	?_Getal@?$vector@V?$X@UC448@lime@@$0A@@lime@@V?$allocator@V?$X@UC448@lime@@$0A@@lime@@@std@@@std@@AEAAAEAV?$allocator@V?$X@UC448@lime@@$0A@@lime@@@2@XZ
	?_Getal@?$vector@V?$basic_string@DU?$char_traits@D@std@@V?$allocator@D@2@@std@@V?$allocator@V?$basic_string@DU?$char_traits@D@std@@V?$allocator@D@2@@std@@@2@@std@@AEAAAEAV?$allocator@V?$basic_string@DU?$char_traits@D@std@@V?$allocator@D@2@@std@@@2@XZ
	?_Growmap@?$deque@V?$shared_ptr@U?$callbackUserData@UC255@lime@@@lime@@@std@@V?$allocator@V?$shared_ptr@U?$callbackUserData@UC255@lime@@@lime@@@std@@@2@@std@@AEAAX_K@Z
	?_Growmap@?$deque@V?$shared_ptr@U?$callbackUserData@UC448@lime@@@lime@@@std@@V?$allocator@V?$shared_ptr@U?$callbackUserData@UC448@lime@@@lime@@@std@@@2@@std@@AEAAX_K@Z
	?_Insert_node@?$_Tree_val@U?$_Tree_simple_types@I@std@@@std@@QEAAPEAU?$_Tree_node@IPEAX@2@U?$_Tree_id@PEAU?$_Tree_node@IPEAX@std@@@2@QEAU32@@Z
	?_Maklocwcs@std@@YAPEA_WPEB_W@Z
	?_Move@?$_Func_impl_no_alloc@V<lambda_2729ea627d046d894fd451ab504ba8ae>@@XHAEBV?$vector@EV?$allocator@E@std@@@std@@@std@@EEAAPEAV?$_Func_base@XHAEBV?$vector@EV?$allocator@E@std@@@std@@@2@PEAX@Z
	?_Move@?$_Func_impl_no_alloc@V<lambda_efc32634edcf6ab1e929fb35f3eb1ebf>@@XHAEBV?$vector@EV?$allocator@E@std@@@std@@@std@@EEAAPEAV?$_Func_base@XHAEBV?$vector@EV?$allocator@E@std@@@std@@@2@PEAX@Z
	?_Reallocate_exactly@?$vector@EV?$allocator@E@std@@@std@@AEAAX_K@Z
	?_Reallocate_exactly@?$vector@IV?$allocator@I@std@@@std@@AEAAX_K@Z
	?_Reallocate_exactly@?$vector@V?$X@UC255@lime@@$0A@@lime@@V?$allocator@V?$X@UC255@lime@@$0A@@lime@@@std@@@std@@AEAAX_K@Z
	?_Reallocate_exactly@?$vector@V?$X@UC448@lime@@$0A@@lime@@V?$allocator@V?$X@UC448@lime@@$0A@@lime@@@std@@@std@@AEAAX_K@Z
	?_Rehash_for_1@?$_Hash@V?$_Umap_traits@GU?$sBuffer@$0DA@@lime@@V?$_Uhash_compare@GU?$hash@G@std@@U?$equal_to@G@2@@std@@V?$allocator@U?$pair@$$CBGU?$sBuffer@$0DA@@lime@@@std@@@4@$0A@@std@@@std@@IEAAXXZ
	?_Rehash_for_1@?$_Hash@V?$_Umap_traits@V?$basic_string@DU?$char_traits@D@std@@V?$allocator@D@2@@std@@V?$shared_ptr@VLimeGeneric@lime@@@2@V?$_Uhash_compare@V?$basic_string@DU?$char_traits@D@std@@V?$allocator@D@2@@std@@U?$hash@V?$basic_string@DU?$char_traits@D@std@@V?$allocator@D@2@@std@@@2@U?$equal_to@V?$basic_string@DU?$char_traits@D@std@@V?$allocator@D@2@@std@@@2@@2@V?$allocator@U?$pair@$$CBV?$basic_string@DU?$char_traits@D@std@@V?$allocator@D@2@@std@@V?$shared_ptr@VLimeGeneric@lime@@@2@@std@@@2@$0A@@std@@@std@@IEAAXXZ
	?_Target_type@?$_Func_impl_no_alloc@V<lambda_2729ea627d046d894fd451ab504ba8ae>@@XHAEBV?$vector@EV?$allocator@E@std@@@std@@@std@@EEBAAEBVtype_info@@XZ
	?_Target_type@?$_Func_impl_no_alloc@V<lambda_efc32634edcf6ab1e929fb35f3eb1ebf>@@XHAEBV?$vector@EV?$allocator@E@std@@@std@@@std@@EEBAAEBVtype_info@@XZ
	?_Throw_bad_array_new_length@std@@YAXXZ
	?_Throw_bad_weak_ptr@std@@YAXXZ
	?_Throw_system_error@std@@YAXW4errc@1@@Z
	?_Throw_tree_length_error@std@@YAXXZ
	?_Tidy@?$vector@V?$shared_ptr@V?$DR@UC255@lime@@@lime@@@std@@V?$allocator@V?$shared_ptr@V?$DR@UC255@lime@@@lime@@@std@@@2@@std@@AEAAXXZ
	?_Tidy@?$vector@V?$shared_ptr@V?$DR@UC448@lime@@@lime@@@std@@V?$allocator@V?$shared_ptr@V?$DR@UC448@lime@@@lime@@@std@@@2@@std@@AEAAXXZ
	?_Tidy_deallocate@?$basic_string@DU?$char_traits@D@std@@V?$allocator@D@2@@std@@AEAAXXZ
	?_Umove@?$vector@EV?$allocator@E@std@@@std@@AEAAPEAEPEAE00@Z
	?_Umove@?$vector@U?$ReceiverKeyChain@UC255@lime@@@lime@@V?$allocator@U?$ReceiverKeyChain@UC255@lime@@@lime@@@std@@@std@@AEAAPEAU?$ReceiverKeyChain@UC255@lime@@@lime@@PEAU34@00@Z
	?_Umove@?$vector@U?$ReceiverKeyChain@UC448@lime@@@lime@@V?$allocator@U?$ReceiverKeyChain@UC448@lime@@@lime@@@std@@@std@@AEAAPEAU?$ReceiverKeyChain@UC448@lime@@@lime@@PEAU34@00@Z
	?_Umove@?$vector@U?$RecipientInfos@UC255@lime@@@lime@@V?$allocator@U?$RecipientInfos@UC255@lime@@@lime@@@std@@@std@@AEAAPEAU?$RecipientInfos@UC255@lime@@@lime@@PEAU34@00@Z
	?_Umove@?$vector@U?$RecipientInfos@UC448@lime@@@lime@@V?$allocator@U?$RecipientInfos@UC448@lime@@@lime@@@std@@@std@@AEAAPEAU?$RecipientInfos@UC448@lime@@@lime@@PEAU34@00@Z
	?_Umove@?$vector@U?$X3DH_peerBundle@UC255@lime@@@lime@@V?$allocator@U?$X3DH_peerBundle@UC255@lime@@@lime@@@std@@@std@@AEAAPEAU?$X3DH_peerBundle@UC255@lime@@@lime@@PEAU34@00@Z
	?_Umove@?$vector@U?$X3DH_peerBundle@UC448@lime@@@lime@@V?$allocator@U?$X3DH_peerBundle@UC448@lime@@@lime@@@std@@@std@@AEAAPEAU?$X3DH_peerBundle@UC448@lime@@@lime@@PEAU34@00@Z
	?_Umove@?$vector@V?$shared_ptr@V?$DR@UC255@lime@@@lime@@@std@@V?$allocator@V?$shared_ptr@V?$DR@UC255@lime@@@lime@@@std@@@2@@std@@AEAAPEAV?$shared_ptr@V?$DR@UC255@lime@@@lime@@@2@PEAV32@00@Z
	?_Umove@?$vector@V?$shared_ptr@V?$DR@UC448@lime@@@lime@@@std@@V?$allocator@V?$shared_ptr@V?$DR@UC448@lime@@@lime@@@std@@@2@@std@@AEAAPEAV?$shared_ptr@V?$DR@UC448@lime@@@lime@@@2@PEAV32@00@Z
	?_Umove_if_noexcept@?$vector@U?$RecipientInfos@UC255@lime@@@lime@@V?$allocator@U?$RecipientInfos@UC255@lime@@@lime@@@std@@@std@@AEAAXPEAU?$RecipientInfos@UC255@lime@@@lime@@00@Z
	?_Umove_if_noexcept@?$vector@U?$RecipientInfos@UC448@lime@@@lime@@V?$allocator@U?$RecipientInfos@UC448@lime@@@lime@@@std@@@std@@AEAAXPEAU?$RecipientInfos@UC448@lime@@@lime@@00@Z
	?_Umove_if_noexcept@?$vector@U?$X3DH_peerBundle@UC255@lime@@@lime@@V?$allocator@U?$X3DH_peerBundle@UC255@lime@@@lime@@@std@@@std@@AEAAXPEAU?$X3DH_peerBundle@UC255@lime@@@lime@@00@Z
	?_Umove_if_noexcept@?$vector@U?$X3DH_peerBundle@UC448@lime@@@lime@@V?$allocator@U?$X3DH_peerBundle@UC448@lime@@@lime@@@std@@@std@@AEAAXPEAU?$X3DH_peerBundle@UC448@lime@@@lime@@00@Z
	?_Xlen@?$deque@V?$shared_ptr@U?$callbackUserData@UC255@lime@@@lime@@@std@@V?$allocator@V?$shared_ptr@U?$callbackUserData@UC255@lime@@@lime@@@std@@@2@@std@@AEBAXXZ
	?_Xlen@?$deque@V?$shared_ptr@U?$callbackUserData@UC448@lime@@@lime@@@std@@V?$allocator@V?$shared_ptr@U?$callbackUserData@UC448@lime@@@lime@@@std@@@2@@std@@AEBAXXZ
	?_Xlen_string@std@@YAXXZ
	?_Xlength@?$vector@EV?$allocator@E@std@@@std@@CAXXZ
	?_Xlength@?$vector@IV?$allocator@I@std@@@std@@CAXXZ
	?_Xlength@?$vector@PEAVinto_type_base@details@soci@@V?$allocator@PEAVinto_type_base@details@soci@@@std@@@std@@CAXXZ
	?_Xlength@?$vector@PEAVuse_type_base@details@soci@@V?$allocator@PEAVuse_type_base@details@soci@@@std@@@std@@CAXXZ
	?_Xlength@?$vector@U?$ReceiverKeyChain@UC255@lime@@@lime@@V?$allocator@U?$ReceiverKeyChain@UC255@lime@@@lime@@@std@@@std@@CAXXZ
	?_Xlength@?$vector@U?$ReceiverKeyChain@UC448@lime@@@lime@@V?$allocator@U?$ReceiverKeyChain@UC448@lime@@@lime@@@std@@@std@@CAXXZ
	?_Xlength@?$vector@U?$RecipientInfos@UC255@lime@@@lime@@V?$allocator@U?$RecipientInfos@UC255@lime@@@lime@@@std@@@std@@CAXXZ
	?_Xlength@?$vector@U?$RecipientInfos@UC448@lime@@@lime@@V?$allocator@U?$RecipientInfos@UC448@lime@@@lime@@@std@@@std@@CAXXZ
	?_Xlength@?$vector@U?$X3DH_peerBundle@UC255@lime@@@lime@@V?$allocator@U?$X3DH_peerBundle@UC255@lime@@@lime@@@std@@@std@@CAXXZ
	?_Xlength@?$vector@U?$X3DH_peerBundle@UC448@lime@@@lime@@V?$allocator@U?$X3DH_peerBundle@UC448@lime@@@lime@@@std@@@std@@CAXXZ
	?_Xlength@?$vector@V?$X@UC255@lime@@$0A@@lime@@V?$allocator@V?$X@UC255@lime@@$0A@@lime@@@std@@@std@@CAXXZ
	?_Xlength@?$vector@V?$X@UC448@lime@@$0A@@lime@@V?$allocator@V?$X@UC448@lime@@$0A@@lime@@@std@@@std@@CAXXZ
	?_Xlength@?$vector@V?$basic_string@DU?$char_traits@D@std@@V?$allocator@D@2@@std@@V?$allocator@V?$basic_string@DU?$char_traits@D@std@@V?$allocator@D@2@@std@@@2@@std@@CAXXZ
	?_Xlength@?$vector@V?$shared_ptr@V?$DR@UC255@lime@@@lime@@@std@@V?$allocator@V?$shared_ptr@V?$DR@UC255@lime@@@lime@@@std@@@2@@std@@CAXXZ
	?_Xlength@?$vector@V?$shared_ptr@V?$DR@UC448@lime@@@lime@@@std@@V?$allocator@V?$shared_ptr@V?$DR@UC448@lime@@@lime@@@std@@@2@@std@@CAXXZ
	?_Xrange@?$vector@PEAVholder@details@soci@@V?$allocator@PEAVholder@details@soci@@@std@@@std@@CAXXZ
	?_Xrange@?$vector@PEAW4indicator@soci@@V?$allocator@PEAW4indicator@soci@@@std@@@std@@CAXXZ
	?activate_user@?$Lime@UC255@lime@@@lime@@AEAA_NXZ
	?activate_user@?$Lime@UC448@lime@@@lime@@AEAA_NXZ
	?append@?$basic_string@DU?$char_traits@D@std@@V?$allocator@D@2@@std@@QEAAAEAV12@QEBD_K@Z
	?assign@?$DSA@UC255@lime@@$00@lime@@QEAAXV?$_Vector_const_iterator@V?$_Vector_val@U?$_Simple_types@E@std@@@std@@@std@@@Z
	?assign@?$DSA@UC255@lime@@$01@lime@@QEAAXV?$_Vector_const_iterator@V?$_Vector_val@U?$_Simple_types@E@std@@@std@@@std@@@Z
	?assign@?$DSA@UC255@lime@@$0A@@lime@@QEAAXV?$_Vector_const_iterator@V?$_Vector_val@U?$_Simple_types@E@std@@@std@@@std@@@Z
	?assign@?$DSA@UC448@lime@@$00@lime@@QEAAXV?$_Vector_const_iterator@V?$_Vector_val@U?$_Simple_types@E@std@@@std@@@std@@@Z
	?assign@?$DSA@UC448@lime@@$01@lime@@QEAAXV?$_Vector_const_iterator@V?$_Vector_val@U?$_Simple_types@E@std@@@std@@@std@@@Z
	?assign@?$DSA@UC448@lime@@$0A@@lime@@QEAAXV?$_Vector_const_iterator@V?$_Vector_val@U?$_Simple_types@E@std@@@std@@@std@@@Z
	?assign@?$X@UC255@lime@@$00@lime@@QEAAXV?$_Vector_const_iterator@V?$_Vector_val@U?$_Simple_types@E@std@@@std@@@std@@@Z
	?assign@?$X@UC255@lime@@$01@lime@@QEAAXV?$_Vector_const_iterator@V?$_Vector_val@U?$_Simple_types@E@std@@@std@@@std@@@Z
	?assign@?$X@UC255@lime@@$0A@@lime@@QEAAXV?$_Vector_const_iterator@V?$_Vector_val@U?$_Simple_types@E@std@@@std@@@std@@@Z
	?assign@?$X@UC448@lime@@$00@lime@@QEAAXV?$_Vector_const_iterator@V?$_Vector_val@U?$_Simple_types@E@std@@@std@@@std@@@Z
	?assign@?$X@UC448@lime@@$01@lime@@QEAAXV?$_Vector_const_iterator@V?$_Vector_val@U?$_Simple_types@E@std@@@std@@@std@@@Z
	?assign@?$X@UC448@lime@@$0A@@lime@@QEAAXV?$_Vector_const_iterator@V?$_Vector_val@U?$_Simple_types@E@std@@@std@@@std@@@Z
	?assign@?$basic_string@DU?$char_traits@D@std@@V?$allocator@D@2@@std@@QEAAAEAV12@QEBD_K@Z
	?cache_DR_sessions@?$Lime@UC255@lime@@@lime@@AEAAXAEAV?$vector@U?$RecipientInfos@UC255@lime@@@lime@@V?$allocator@U?$RecipientInfos@UC255@lime@@@lime@@@std@@@std@@AEAV?$vector@V?$basic_string@DU?$char_traits@D@std@@V?$allocator@D@2@@std@@V?$allocator@V?$basic_string@DU?$char_traits@D@std@@V?$allocator@D@2@@std@@@2@@4@@Z
	?cache_DR_sessions@?$Lime@UC448@lime@@@lime@@AEAAXAEAV?$vector@U?$RecipientInfos@UC448@lime@@@lime@@V?$allocator@U?$RecipientInfos@UC448@lime@@@lime@@@std@@@std@@AEAV?$vector@V?$basic_string@DU?$char_traits@D@std@@V?$allocator@D@2@@std@@V?$allocator@V?$basic_string@DU?$char_traits@D@std@@V?$allocator@D@2@@std@@@2@@4@@Z
	?cleanBuffer@lime@@YAXPEAE_K@Z
	?cleanUserData@?$Lime@UC255@lime@@@lime@@AEAAXV?$shared_ptr@U?$callbackUserData@UC255@lime@@@lime@@@std@@@Z
	?cleanUserData@?$Lime@UC448@lime@@@lime@@AEAAXV?$shared_ptr@U?$callbackUserData@UC448@lime@@@lime@@@std@@@Z
	?clean_DRSessions@Db@lime@@QEAAXXZ
	?clean_SPk@Db@lime@@QEAAXXZ
	?clean_up@?$into_type@Vrow@soci@@@details@soci@@EEAAXXZ
	?clear@?$vector@IV?$allocator@I@std@@@std@@QEAAXXZ
	?clear@?$vector@U?$ReceiverKeyChain@UC255@lime@@@lime@@V?$allocator@U?$ReceiverKeyChain@UC255@lime@@@lime@@@std@@@std@@QEAAXXZ
	?clear@?$vector@U?$ReceiverKeyChain@UC448@lime@@@lime@@V?$allocator@U?$ReceiverKeyChain@UC448@lime@@@lime@@@std@@@std@@QEAAXXZ
	?clear@?$vector@V?$X@UC255@lime@@$0A@@lime@@V?$allocator@V?$X@UC255@lime@@$0A@@lime@@@std@@@std@@QEAAXXZ
	?clear@?$vector@V?$X@UC448@lime@@$0A@@lime@@V?$allocator@V?$X@UC448@lime@@$0A@@lime@@@std@@@std@@QEAAXXZ
	?commit_transaction@Db@lime@@QEAAXXZ
	?computeSharedSecret@?$bctbx_ECDH@UC255@lime@@@lime@@UEAAXXZ
	?computeSharedSecret@?$bctbx_ECDH@UC448@lime@@@lime@@UEAAXXZ
	?convert_from_base@?$conversion_use_type@E@details@soci@@UEAAXXZ
	?convert_from_base@?$into_type@Vrow@soci@@@details@soci@@EEAAXXZ
	?convert_from_base@standard_into_type@details@soci@@EEAAXXZ
	?convert_from_base@standard_use_type@details@soci@@UEAAXXZ
	?convert_to_base@?$conversion_use_type@E@details@soci@@UEAAXXZ
	?convert_to_base@standard_use_type@details@soci@@UEAAXXZ
	?createKeyPair@?$bctbx_ECDH@UC255@lime@@@lime@@UEAAXV?$shared_ptr@VRNG@lime@@@std@@@Z
	?createKeyPair@?$bctbx_ECDH@UC448@lime@@@lime@@UEAAXV?$shared_ptr@VRNG@lime@@@std@@@Z
	?createKeyPair@?$bctbx_EDDSA@UC255@lime@@@lime@@UEAAXV?$shared_ptr@VRNG@lime@@@std@@@Z
	?createKeyPair@?$bctbx_EDDSA@UC448@lime@@@lime@@UEAAXV?$shared_ptr@VRNG@lime@@@std@@@Z
	?create_user@?$Lime@UC255@lime@@@lime@@AEAA_NXZ
	?create_user@?$Lime@UC448@lime@@@lime@@AEAA_NXZ
	?create_user@LimeManager@lime@@QEAAXAEBV?$basic_string@DU?$char_traits@D@std@@V?$allocator@D@2@@std@@0W4CurveId@2@AEBV?$function@$$A6AXW4CallbackReturn@lime@@V?$basic_string@DU?$char_traits@D@std@@V?$allocator@D@2@@std@@@Z@4@@Z
	?create_user@LimeManager@lime@@QEAAXAEBV?$basic_string@DU?$char_traits@D@std@@V?$allocator@D@2@@std@@0W4CurveId@2@GAEBV?$function@$$A6AXW4CallbackReturn@lime@@V?$basic_string@DU?$char_traits@D@std@@V?$allocator@D@2@@std@@@Z@4@@Z
	?dbSessionId@?$DR@UC255@lime@@@lime@@QEBAJXZ
	?dbSessionId@?$DR@UC448@lime@@@lime@@QEBAJXZ
	?deallocate@?$allocator@D@std@@QEAAXQEAD_K@Z
	?deallocate@?$allocator@E@std@@QEAAXQEAE_K@Z
	?deallocate@?$allocator@I@std@@QEAAXQEAI_K@Z
	?deallocate@?$allocator@PEAVinto_type_base@details@soci@@@std@@QEAAXQEAPEAVinto_type_base@details@soci@@_K@Z
	?deallocate@?$allocator@PEAVuse_type_base@details@soci@@@std@@QEAAXQEAPEAVuse_type_base@details@soci@@_K@Z
	?deallocate@?$allocator@U?$ReceiverKeyChain@UC255@lime@@@lime@@@std@@QEAAXQEAU?$ReceiverKeyChain@UC255@lime@@@lime@@_K@Z
	?deallocate@?$allocator@U?$ReceiverKeyChain@UC448@lime@@@lime@@@std@@QEAAXQEAU?$ReceiverKeyChain@UC448@lime@@@lime@@_K@Z
	?deallocate@?$allocator@U?$RecipientInfos@UC255@lime@@@lime@@@std@@QEAAXQEAU?$RecipientInfos@UC255@lime@@@lime@@_K@Z
	?deallocate@?$allocator@U?$RecipientInfos@UC448@lime@@@lime@@@std@@QEAAXQEAU?$RecipientInfos@UC448@lime@@@lime@@_K@Z
	?deallocate@?$allocator@U?$X3DH_peerBundle@UC255@lime@@@lime@@@std@@QEAAXQEAU?$X3DH_peerBundle@UC255@lime@@@lime@@_K@Z
	?deallocate@?$allocator@U?$X3DH_peerBundle@UC448@lime@@@lime@@@std@@QEAAXQEAU?$X3DH_peerBundle@UC448@lime@@@lime@@_K@Z
	?deallocate@?$allocator@V?$X@UC255@lime@@$0A@@lime@@@std@@QEAAXQEAV?$X@UC255@lime@@$0A@@lime@@_K@Z
	?deallocate@?$allocator@V?$X@UC448@lime@@$0A@@lime@@@std@@QEAAXQEAV?$X@UC448@lime@@$0A@@lime@@_K@Z
	?deallocate@?$allocator@V?$basic_string@DU?$char_traits@D@std@@V?$allocator@D@2@@std@@@std@@QEAAXQEAV?$basic_string@DU?$char_traits@D@std@@V?$allocator@D@2@@2@_K@Z
	?deallocate@?$allocator@V?$shared_ptr@V?$DR@UC255@lime@@@lime@@@std@@@std@@QEAAXQEAV?$shared_ptr@V?$DR@UC255@lime@@@lime@@@2@_K@Z
	?deallocate@?$allocator@V?$shared_ptr@V?$DR@UC448@lime@@@lime@@@std@@@std@@QEAAXQEAV?$shared_ptr@V?$DR@UC448@lime@@@lime@@@2@_K@Z
	?dec@std@@YAAEAVios_base@1@AEAV21@@Z
	?decrypt@?$Lime@UC255@lime@@@lime@@UEAA?AW4PeerDeviceStatus@2@AEBV?$vector@EV?$allocator@E@std@@@std@@AEBV?$basic_string@DU?$char_traits@D@std@@V?$allocator@D@2@@5@00AEAV45@@Z
	?decrypt@?$Lime@UC448@lime@@@lime@@UEAA?AW4PeerDeviceStatus@2@AEBV?$vector@EV?$allocator@E@std@@@std@@AEBV?$basic_string@DU?$char_traits@D@std@@V?$allocator@D@2@@5@00AEAV45@@Z
	?decrypt@LimeManager@lime@@QEAA?AW4PeerDeviceStatus@2@AEBV?$basic_string@DU?$char_traits@D@std@@V?$allocator@D@2@@std@@00AEBV?$vector@EV?$allocator@E@std@@@5@1AEAV65@@Z
	?decrypt@LimeManager@lime@@QEAA?AW4PeerDeviceStatus@2@AEBV?$basic_string@DU?$char_traits@D@std@@V?$allocator@D@2@@std@@00AEBV?$vector@EV?$allocator@E@std@@@5@AEAV65@@Z
	?decrypt@LimeManager@lime@@QEAA?AW4PeerDeviceStatus@2@AEBV?$basic_string@DU?$char_traits@D@std@@V?$allocator@D@2@@std@@AEBV?$vector@EV?$allocator@E@std@@@5@011AEAV65@@Z
	?decrypt@LimeManager@lime@@QEAA?AW4PeerDeviceStatus@2@AEBV?$basic_string@DU?$char_traits@D@std@@V?$allocator@D@2@@std@@AEBV?$vector@EV?$allocator@E@std@@@5@01AEAV65@@Z
	?default_error_condition@error_category@std@@UEBA?AVerror_condition@2@H@Z
	?define@?$into_type@Vrow@soci@@@details@soci@@EEAAXAEAVstatement_impl@23@AEAH@Z
	?delete_LimeUser@Db@lime@@QEAAXAEBV?$basic_string@DU?$char_traits@D@std@@V?$allocator@D@2@@std@@@Z
	?delete_peerDevice@?$Lime@UC255@lime@@@lime@@UEAAXAEBV?$basic_string@DU?$char_traits@D@std@@V?$allocator@D@2@@std@@@Z
	?delete_peerDevice@?$Lime@UC448@lime@@@lime@@UEAAXAEBV?$basic_string@DU?$char_traits@D@std@@V?$allocator@D@2@@std@@@Z
	?delete_peerDevice@Db@lime@@QEAAXAEBV?$basic_string@DU?$char_traits@D@std@@V?$allocator@D@2@@std@@@Z
	?delete_peerDevice@LimeManager@lime@@QEAAXAEBV?$basic_string@DU?$char_traits@D@std@@V?$allocator@D@2@@std@@@Z
	?delete_user@?$Lime@UC255@lime@@@lime@@UEAAXAEBV?$function@$$A6AXW4CallbackReturn@lime@@V?$basic_string@DU?$char_traits@D@std@@V?$allocator@D@2@@std@@@Z@std@@@Z
	?delete_user@?$Lime@UC448@lime@@@lime@@UEAAXAEBV?$function@$$A6AXW4CallbackReturn@lime@@V?$basic_string@DU?$char_traits@D@std@@V?$allocator@D@2@@std@@@Z@std@@@Z
	?delete_user@LimeManager@lime@@QEAAXAEBV?$basic_string@DU?$char_traits@D@std@@V?$allocator@D@2@@std@@AEBV?$function@$$A6AXW4CallbackReturn@lime@@V?$basic_string@DU?$char_traits@D@std@@V?$allocator@D@2@@std@@@Z@4@@Z
	?derivePublic@?$bctbx_EDDSA@UC255@lime@@@lime@@UEAAXXZ
	?derivePublic@?$bctbx_EDDSA@UC448@lime@@@lime@@UEAAXXZ
	?deriveSelfPublic@?$bctbx_ECDH@UC255@lime@@@lime@@UEAAXXZ
	?deriveSelfPublic@?$bctbx_ECDH@UC448@lime@@@lime@@UEAAXXZ
	?encrypt@?$Lime@UC255@lime@@@lime@@UEAAXV?$shared_ptr@$$CBV?$vector@EV?$allocator@E@std@@@std@@@std@@V?$shared_ptr@V?$vector@URecipientData@lime@@V?$allocator@URecipientData@lime@@@std@@@std@@@4@0W4EncryptionPolicy@2@V?$shared_ptr@V?$vector@EV?$allocator@E@std@@@std@@@4@AEBV?$function@$$A6AXW4CallbackReturn@lime@@V?$basic_string@DU?$char_traits@D@std@@V?$allocator@D@2@@std@@@Z@4@@Z
	?encrypt@?$Lime@UC448@lime@@@lime@@UEAAXV?$shared_ptr@$$CBV?$vector@EV?$allocator@E@std@@@std@@@std@@V?$shared_ptr@V?$vector@URecipientData@lime@@V?$allocator@URecipientData@lime@@@std@@@std@@@4@0W4EncryptionPolicy@2@V?$shared_ptr@V?$vector@EV?$allocator@E@std@@@std@@@4@AEBV?$function@$$A6AXW4CallbackReturn@lime@@V?$basic_string@DU?$char_traits@D@std@@V?$allocator@D@2@@std@@@Z@4@@Z
	?encrypt@LimeManager@lime@@QEAAXAEBV?$basic_string@DU?$char_traits@D@std@@V?$allocator@D@2@@std@@V?$shared_ptr@$$CBV?$basic_string@DU?$char_traits@D@std@@V?$allocator@D@2@@std@@@4@V?$shared_ptr@V?$vector@URecipientData@lime@@V?$allocator@URecipientData@lime@@@std@@@std@@@4@V?$shared_ptr@$$CBV?$vector@EV?$allocator@E@std@@@std@@@4@V?$shared_ptr@V?$vector@EV?$allocator@E@std@@@std@@@4@AEBV?$function@$$A6AXW4CallbackReturn@lime@@V?$basic_string@DU?$char_traits@D@std@@V?$allocator@D@2@@std@@@Z@4@W4EncryptionPolicy@2@@Z
	?encrypt@LimeManager@lime@@QEAAXAEBV?$basic_string@DU?$char_traits@D@std@@V?$allocator@D@2@@std@@V?$shared_ptr@$$CBV?$vector@EV?$allocator@E@std@@@std@@@4@V?$shared_ptr@V?$vector@URecipientData@lime@@V?$allocator@URecipientData@lime@@@std@@@std@@@4@1V?$shared_ptr@V?$vector@EV?$allocator@E@std@@@std@@@4@AEBV?$function@$$A6AXW4CallbackReturn@lime@@V?$basic_string@DU?$char_traits@D@std@@V?$allocator@D@2@@std@@@Z@4@W4EncryptionPolicy@2@@Z
	?equivalent@error_category@std@@UEBA_NAEBVerror_code@2@H@Z
	?equivalent@error_category@std@@UEBA_NHAEBVerror_condition@2@@Z
	?erase@?$_Hash@V?$_Umap_traits@V?$basic_string@DU?$char_traits@D@std@@V?$allocator@D@2@@std@@V?$shared_ptr@V?$DR@UC255@lime@@@lime@@@2@V?$_Uhash_compare@V?$basic_string@DU?$char_traits@D@std@@V?$allocator@D@2@@std@@U?$hash@V?$basic_string@DU?$char_traits@D@std@@V?$allocator@D@2@@std@@@2@U?$equal_to@V?$basic_string@DU?$char_traits@D@std@@V?$allocator@D@2@@std@@@2@@2@V?$allocator@U?$pair@$$CBV?$basic_string@DU?$char_traits@D@std@@V?$allocator@D@2@@std@@V?$shared_ptr@V?$DR@UC255@lime@@@lime@@@2@@std@@@2@$0A@@std@@@std@@QEAA_KAEBV?$basic_string@DU?$char_traits@D@std@@V?$allocator@D@2@@2@@Z
	?erase@?$_Hash@V?$_Umap_traits@V?$basic_string@DU?$char_traits@D@std@@V?$allocator@D@2@@std@@V?$shared_ptr@V?$DR@UC448@lime@@@lime@@@2@V?$_Uhash_compare@V?$basic_string@DU?$char_traits@D@std@@V?$allocator@D@2@@std@@U?$hash@V?$basic_string@DU?$char_traits@D@std@@V?$allocator@D@2@@std@@@2@U?$equal_to@V?$basic_string@DU?$char_traits@D@std@@V?$allocator@D@2@@std@@@2@@2@V?$allocator@U?$pair@$$CBV?$basic_string@DU?$char_traits@D@std@@V?$allocator@D@2@@std@@V?$shared_ptr@V?$DR@UC448@lime@@@lime@@@2@@std@@@2@$0A@@std@@@std@@QEAA_KAEBV?$basic_string@DU?$char_traits@D@std@@V?$allocator@D@2@@2@@Z
	?erase@?$_Hash@V?$_Umap_traits@V?$basic_string@DU?$char_traits@D@std@@V?$allocator@D@2@@std@@V?$shared_ptr@VLimeGeneric@lime@@@2@V?$_Uhash_compare@V?$basic_string@DU?$char_traits@D@std@@V?$allocator@D@2@@std@@U?$hash@V?$basic_string@DU?$char_traits@D@std@@V?$allocator@D@2@@std@@@2@U?$equal_to@V?$basic_string@DU?$char_traits@D@std@@V?$allocator@D@2@@std@@@2@@2@V?$allocator@U?$pair@$$CBV?$basic_string@DU?$char_traits@D@std@@V?$allocator@D@2@@std@@V?$shared_ptr@VLimeGeneric@lime@@@2@@std@@@2@$0A@@std@@@std@@QEAA_KAEBV?$basic_string@DU?$char_traits@D@std@@V?$allocator@D@2@@2@@Z
	?execute@statement@soci@@QEAA_N_N@Z
	?from_base@?$type_conversion@V?$basic_string@DU?$char_traits@D@std@@V?$allocator@D@2@@std@@X@soci@@SAXAEBV?$basic_string@DU?$char_traits@D@std@@V?$allocator@D@2@@std@@W4indicator@2@AEAV34@@Z
	?get_DRSessions@?$Lime@UC255@lime@@@lime@@AEAAXAEBV?$basic_string@DU?$char_traits@D@std@@V?$allocator@D@2@@std@@JAEAV?$vector@V?$shared_ptr@V?$DR@UC255@lime@@@lime@@@std@@V?$allocator@V?$shared_ptr@V?$DR@UC255@lime@@@lime@@@std@@@2@@4@@Z
	?get_DRSessions@?$Lime@UC448@lime@@@lime@@AEAAXAEBV?$basic_string@DU?$char_traits@D@std@@V?$allocator@D@2@@std@@JAEAV?$vector@V?$shared_ptr@V?$DR@UC448@lime@@@lime@@@std@@V?$allocator@V?$shared_ptr@V?$DR@UC448@lime@@@lime@@@std@@@2@@4@@Z
	?get_Ik@?$Lime@UC255@lime@@@lime@@UEAAXAEAV?$vector@EV?$allocator@E@std@@@std@@@Z
	?get_Ik@?$Lime@UC448@lime@@@lime@@UEAAXAEAV?$vector@EV?$allocator@E@std@@@std@@@Z
	?get_SelfIdentityKey@?$Lime@UC255@lime@@@lime@@AEAAXXZ
	?get_SelfIdentityKey@?$Lime@UC448@lime@@@lime@@AEAAXXZ
	?get_data@standard_use_type@details@soci@@UEAAPEAXXZ
	?get_name@standard_use_type@details@soci@@UEBA?AV?$basic_string@DU?$char_traits@D@std@@V?$allocator@D@2@@std@@XZ
	?get_peerDeviceStatus@Db@lime@@QEAA?AW4PeerDeviceStatus@2@AEBV?$basic_string@DU?$char_traits@D@std@@V?$allocator@D@2@@std@@@Z
	?get_peerDeviceStatus@Db@lime@@QEAA?AW4PeerDeviceStatus@2@AEBV?$list@V?$basic_string@DU?$char_traits@D@std@@V?$allocator@D@2@@std@@V?$allocator@V?$basic_string@DU?$char_traits@D@std@@V?$allocator@D@2@@std@@@2@@std@@@Z
	?get_peerDeviceStatus@LimeManager@lime@@QEAA?AW4PeerDeviceStatus@2@AEBV?$basic_string@DU?$char_traits@D@std@@V?$allocator@D@2@@std@@@Z
	?get_peerDeviceStatus@LimeManager@lime@@QEAA?AW4PeerDeviceStatus@2@AEBV?$list@V?$basic_string@DU?$char_traits@D@std@@V?$allocator@D@2@@std@@V?$allocator@V?$basic_string@DU?$char_traits@D@std@@V?$allocator@D@2@@std@@@2@@std@@@Z
	?get_peerPublic@?$bctbx_ECDH@UC255@lime@@@lime@@UEAA?BV?$X@UC255@lime@@$0A@@2@XZ
	?get_peerPublic@?$bctbx_ECDH@UC448@lime@@@lime@@UEAA?BV?$X@UC448@lime@@$0A@@2@XZ
	?get_public@?$bctbx_EDDSA@UC255@lime@@@lime@@UEAA?BV?$DSA@UC255@lime@@$0A@@2@XZ
	?get_public@?$bctbx_EDDSA@UC448@lime@@@lime@@UEAA?BV?$DSA@UC448@lime@@$0A@@2@XZ
	?get_secret@?$bctbx_ECDH@UC255@lime@@@lime@@UEAA?BV?$X@UC255@lime@@$00@2@XZ
	?get_secret@?$bctbx_ECDH@UC448@lime@@@lime@@UEAA?BV?$X@UC448@lime@@$00@2@XZ
	?get_secret@?$bctbx_EDDSA@UC255@lime@@@lime@@UEAA?BV?$DSA@UC255@lime@@$00@2@XZ
	?get_secret@?$bctbx_EDDSA@UC448@lime@@@lime@@UEAA?BV?$DSA@UC448@lime@@$00@2@XZ
	?get_selfIdentityKey@LimeManager@lime@@QEAAXAEBV?$basic_string@DU?$char_traits@D@std@@V?$allocator@D@2@@std@@AEAV?$vector@EV?$allocator@E@std@@@4@@Z
	?get_selfPublic@?$bctbx_ECDH@UC255@lime@@@lime@@UEAA?BV?$X@UC255@lime@@$0A@@2@XZ
	?get_selfPublic@?$bctbx_ECDH@UC448@lime@@@lime@@UEAA?BV?$X@UC448@lime@@$0A@@2@XZ
	?get_sharedSecret@?$bctbx_ECDH@UC255@lime@@@lime@@UEAA?BV?$X@UC255@lime@@$01@2@XZ
	?get_sharedSecret@?$bctbx_ECDH@UC448@lime@@@lime@@UEAA?BV?$X@UC448@lime@@$01@2@XZ
	?get_x3dhServerUrl@?$Lime@UC255@lime@@@lime@@UEAA?AV?$basic_string@DU?$char_traits@D@std@@V?$allocator@D@2@@std@@XZ
	?get_x3dhServerUrl@?$Lime@UC448@lime@@@lime@@UEAA?AV?$basic_string@DU?$char_traits@D@std@@V?$allocator@D@2@@std@@XZ
	?get_x3dhServerUrl@LimeManager@lime@@QEAA?AV?$basic_string@DU?$char_traits@D@std@@V?$allocator@D@2@@std@@AEBV34@@Z
	?hex@std@@YAAEAVios_base@1@AEAV21@@Z
	?insert_LimeUser@lime@@YA?AV?$shared_ptr@VLimeGeneric@lime@@@std@@V?$shared_ptr@VDb@lime@@@3@AEBV?$basic_string@DU?$char_traits@D@std@@V?$allocator@D@2@@3@1W4CurveId@1@GAEBV?$function@$$A6AXAEBV?$basic_string@DU?$char_traits@D@std@@V?$allocator@D@2@@std@@0AEBV?$vector@EV?$allocator@E@std@@@2@AEBV?$function@$$A6AXHAEBV?$vector@EV?$allocator@E@std@@@std@@@Z@2@@Z@3@AEBV?$function@$$A6AXW4CallbackReturn@lime@@V?$basic_string@DU?$char_traits@D@std@@V?$allocator@D@2@@std@@@Z@3@@Z
	?isActive@?$DR@UC255@lime@@@lime@@QEBA_NXZ
	?isActive@?$DR@UC448@lime@@@lime@@QEBA_NXZ
	?is_currentSPk_valid@?$Lime@UC255@lime@@@lime@@AEAA_NXZ
	?is_currentSPk_valid@?$Lime@UC448@lime@@@lime@@AEAA_NXZ
	?is_localUser@Db@lime@@QEAA_NAEBV?$basic_string@DU?$char_traits@D@std@@V?$allocator@D@2@@std@@@Z
	?is_localUser@LimeManager@lime@@QEAA_NAEBV?$basic_string@DU?$char_traits@D@std@@V?$allocator@D@2@@std@@@Z
	?is_updateRequested@Db@lime@@QEAA_NAEBV?$basic_string@DU?$char_traits@D@std@@V?$allocator@D@2@@std@@@Z
	?is_user@LimeManager@lime@@QEAA_NAEBV?$basic_string@DU?$char_traits@D@std@@V?$allocator@D@2@@std@@@Z
	?load_LimeUser@Db@lime@@QEAAXAEBV?$basic_string@DU?$char_traits@D@std@@V?$allocator@D@2@@std@@AEAJAEAW4CurveId@2@AEAV34@_N@Z
	?load_LimeUser@lime@@YA?AV?$shared_ptr@VLimeGeneric@lime@@@std@@V?$shared_ptr@VDb@lime@@@3@AEBV?$basic_string@DU?$char_traits@D@std@@V?$allocator@D@2@@3@AEBV?$function@$$A6AXAEBV?$basic_string@DU?$char_traits@D@std@@V?$allocator@D@2@@std@@0AEBV?$vector@EV?$allocator@E@std@@@2@AEBV?$function@$$A6AXHAEBV?$vector@EV?$allocator@E@std@@@std@@@Z@2@@Z@3@_N@Z
	?load_user@LimeManager@lime@@AEAAXAEAV?$shared_ptr@VLimeGeneric@lime@@@std@@AEBV?$basic_string@DU?$char_traits@D@std@@V?$allocator@D@2@@4@_N@Z
	?make_RNG@lime@@YA?AV?$shared_ptr@VRNG@lime@@@std@@XZ
	?make_error_code@std@@YA?AVerror_code@1@W4errc@1@@Z
	?message@_Generic_error_category@std@@UEBA?AV?$basic_string@DU?$char_traits@D@std@@V?$allocator@D@2@@2@H@Z
	?name@_Generic_error_category@std@@UEBAPEBDXZ
	?overflow@?$basic_stringbuf@DU?$char_traits@D@std@@V?$allocator@D@2@@std@@MEAAHH@Z
	?payloadDirectEncryption@?$DRHeader@UC255@lime@@@double_ratchet_protocol@lime@@QEBA_NXZ
	?payloadDirectEncryption@?$DRHeader@UC448@lime@@@double_ratchet_protocol@lime@@QEBA_NXZ
	?pbackfail@?$basic_stringbuf@DU?$char_traits@D@std@@V?$allocator@D@2@@std@@MEAAHH@Z
	?postToX3DHServer@?$Lime@UC255@lime@@@lime@@AEAAXV?$shared_ptr@U?$callbackUserData@UC255@lime@@@lime@@@std@@AEBV?$vector@EV?$allocator@E@std@@@4@@Z
	?postToX3DHServer@?$Lime@UC448@lime@@@lime@@AEAAXV?$shared_ptr@U?$callbackUserData@UC448@lime@@@lime@@@std@@AEBV?$vector@EV?$allocator@E@std@@@4@@Z
	?post_fetch@?$into_type@Vrow@soci@@@details@soci@@EEAAX_N0@Z
	?pre_exec@?$into_type@Vrow@soci@@@details@soci@@EEAAXH@Z
	?pre_fetch@?$into_type@Vrow@soci@@@details@soci@@EEAAXXZ
	?privateKey@?$DSApair@UC255@lime@@@lime@@QEAAAEAV?$DSA@UC255@lime@@$00@2@XZ
	?privateKey@?$DSApair@UC448@lime@@@lime@@QEAAAEAV?$DSA@UC448@lime@@$00@2@XZ
	?privateKey@?$Xpair@UC255@lime@@@lime@@QEAAAEAV?$X@UC255@lime@@$00@2@XZ
	?privateKey@?$Xpair@UC448@lime@@@lime@@QEAAAEAV?$X@UC448@lime@@$00@2@XZ
	?process_response@?$Lime@UC255@lime@@@lime@@AEAAXV?$shared_ptr@U?$callbackUserData@UC255@lime@@@lime@@@std@@HAEBV?$vector@EV?$allocator@E@std@@@4@@Z
	?process_response@?$Lime@UC448@lime@@@lime@@AEAAXV?$shared_ptr@U?$callbackUserData@UC448@lime@@@lime@@@std@@HAEBV?$vector@EV?$allocator@E@std@@@4@@Z
	?publicKey@?$DSApair@UC255@lime@@@lime@@QEAAAEAV?$DSA@UC255@lime@@$0A@@2@XZ
	?publicKey@?$DSApair@UC448@lime@@@lime@@QEAAAEAV?$DSA@UC448@lime@@$0A@@2@XZ
	?publicKey@?$Xpair@UC255@lime@@@lime@@QEAAAEAV?$X@UC255@lime@@$0A@@2@XZ
	?publicKey@?$Xpair@UC448@lime@@@lime@@QEAAAEAV?$X@UC448@lime@@$0A@@2@XZ
	?publish_user@?$Lime@UC255@lime@@@lime@@UEAAXAEBV?$function@$$A6AXW4CallbackReturn@lime@@V?$basic_string@DU?$char_traits@D@std@@V?$allocator@D@2@@std@@@Z@std@@G@Z
	?publish_user@?$Lime@UC448@lime@@@lime@@UEAAXAEBV?$function@$$A6AXW4CallbackReturn@lime@@V?$basic_string@DU?$char_traits@D@std@@V?$allocator@D@2@@std@@@Z@std@@G@Z
	?randomize@bctbx_RNG@lime@@UEAAIXZ
	?randomize@bctbx_RNG@lime@@UEAAXAEAU?$sBuffer@$0CA@@2@@Z
	?randomize@bctbx_RNG@lime@@UEAAXPEAE_K@Z
	?reserve@?$basic_string@DU?$char_traits@D@std@@V?$allocator@D@2@@std@@QEAAX_K@Z
	?resize@?$vector@EV?$allocator@E@std@@@std@@QEAAX_K@Z
	?resize@?$vector@V?$basic_string@DU?$char_traits@D@std@@V?$allocator@D@2@@std@@V?$allocator@V?$basic_string@DU?$char_traits@D@std@@V?$allocator@D@2@@std@@@2@@std@@QEAAX_K@Z
	?resize@into_type_base@details@soci@@UEAAX_K@Z
	?rollback_transaction@Db@lime@@QEAAXXZ
	?seekoff@?$basic_stringbuf@DU?$char_traits@D@std@@V?$allocator@D@2@@std@@MEAA?AV?$fpos@U_Mbstatet@@@2@_JHH@Z
	?seekpos@?$basic_stringbuf@DU?$char_traits@D@std@@V?$allocator@D@2@@std@@MEAA?AV?$fpos@U_Mbstatet@@@2@V32@H@Z
	?session_load@?$DR@UC255@lime@@@lime@@AEAA_NXZ
	?session_load@?$DR@UC448@lime@@@lime@@AEAA_NXZ
	?session_save@?$DR@UC255@lime@@@lime@@AEAA_N_N@Z
	?session_save@?$DR@UC448@lime@@@lime@@AEAA_N_N@Z
	?set_peerDeviceStatus@Db@lime@@QEAAXAEBV?$basic_string@DU?$char_traits@D@std@@V?$allocator@D@2@@std@@AEBV?$vector@EV?$allocator@E@std@@@4@W4PeerDeviceStatus@2@@Z
	?set_peerDeviceStatus@Db@lime@@QEAAXAEBV?$basic_string@DU?$char_traits@D@std@@V?$allocator@D@2@@std@@W4PeerDeviceStatus@2@@Z
	?set_peerDeviceStatus@LimeManager@lime@@QEAAXAEBV?$basic_string@DU?$char_traits@D@std@@V?$allocator@D@2@@std@@AEBV?$vector@EV?$allocator@E@std@@@4@W4PeerDeviceStatus@2@@Z
	?set_peerDeviceStatus@LimeManager@lime@@QEAAXAEBV?$basic_string@DU?$char_traits@D@std@@V?$allocator@D@2@@std@@W4PeerDeviceStatus@2@@Z
	?set_peerPublic@?$bctbx_ECDH@UC255@lime@@@lime@@UEAAXAEBV?$DSA@UC255@lime@@$0A@@2@@Z
	?set_peerPublic@?$bctbx_ECDH@UC255@lime@@@lime@@UEAAXAEBV?$X@UC255@lime@@$0A@@2@@Z
	?set_peerPublic@?$bctbx_ECDH@UC448@lime@@@lime@@UEAAXAEBV?$DSA@UC448@lime@@$0A@@2@@Z
	?set_peerPublic@?$bctbx_ECDH@UC448@lime@@@lime@@UEAAXAEBV?$X@UC448@lime@@$0A@@2@@Z
	?set_public@?$bctbx_EDDSA@UC255@lime@@@lime@@UEAAXAEBV?$DSA@UC255@lime@@$0A@@2@@Z
	?set_public@?$bctbx_EDDSA@UC448@lime@@@lime@@UEAAXAEBV?$DSA@UC448@lime@@$0A@@2@@Z
	?set_secret@?$bctbx_ECDH@UC255@lime@@@lime@@UEAAXAEBV?$DSA@UC255@lime@@$00@2@@Z
	?set_secret@?$bctbx_ECDH@UC255@lime@@@lime@@UEAAXAEBV?$X@UC255@lime@@$00@2@@Z
	?set_secret@?$bctbx_ECDH@UC448@lime@@@lime@@UEAAXAEBV?$DSA@UC448@lime@@$00@2@@Z
	?set_secret@?$bctbx_ECDH@UC448@lime@@@lime@@UEAAXAEBV?$X@UC448@lime@@$00@2@@Z
	?set_secret@?$bctbx_EDDSA@UC255@lime@@@lime@@UEAAXAEBV?$DSA@UC255@lime@@$00@2@@Z
	?set_secret@?$bctbx_EDDSA@UC448@lime@@@lime@@UEAAXAEBV?$DSA@UC448@lime@@$00@2@@Z
	?set_selfPublic@?$bctbx_ECDH@UC255@lime@@@lime@@UEAAXAEBV?$DSA@UC255@lime@@$0A@@2@@Z
	?set_selfPublic@?$bctbx_ECDH@UC255@lime@@@lime@@UEAAXAEBV?$X@UC255@lime@@$0A@@2@@Z
	?set_selfPublic@?$bctbx_ECDH@UC448@lime@@@lime@@UEAAXAEBV?$DSA@UC448@lime@@$0A@@2@@Z
	?set_selfPublic@?$bctbx_ECDH@UC448@lime@@@lime@@UEAAXAEBV?$X@UC448@lime@@$0A@@2@@Z
	?set_updateTs@Db@lime@@QEAAXAEBV?$basic_string@DU?$char_traits@D@std@@V?$allocator@D@2@@std@@@Z
	?set_x3dhServerUrl@?$Lime@UC255@lime@@@lime@@UEAAXAEBV?$basic_string@DU?$char_traits@D@std@@V?$allocator@D@2@@std@@@Z
	?set_x3dhServerUrl@?$Lime@UC448@lime@@@lime@@UEAAXAEBV?$basic_string@DU?$char_traits@D@std@@V?$allocator@D@2@@std@@@Z
	?set_x3dhServerUrl@LimeManager@lime@@QEAAXAEBV?$basic_string@DU?$char_traits@D@std@@V?$allocator@D@2@@std@@0@Z
	?sign@?$bctbx_EDDSA@UC255@lime@@@lime@@UEAAXAEBV?$X@UC255@lime@@$0A@@2@AEAV?$DSA@UC255@lime@@$01@2@@Z
	?sign@?$bctbx_EDDSA@UC255@lime@@@lime@@UEAAXAEBV?$vector@EV?$allocator@E@std@@@std@@AEAV?$DSA@UC255@lime@@$01@2@@Z
	?sign@?$bctbx_EDDSA@UC448@lime@@@lime@@UEAAXAEBV?$X@UC448@lime@@$0A@@2@AEAV?$DSA@UC448@lime@@$01@2@@Z
	?sign@?$bctbx_EDDSA@UC448@lime@@@lime@@UEAAXAEBV?$vector@EV?$allocator@E@std@@@std@@AEAV?$DSA@UC448@lime@@$01@2@@Z
	?size@?$DRHeader@UC255@lime@@@double_ratchet_protocol@lime@@QEAA_KXZ
	?size@?$DRHeader@UC448@lime@@@double_ratchet_protocol@lime@@QEAA_KXZ
	?size@?$into_type@Vrow@soci@@@details@soci@@EEBA_KXZ
	?size@standard_into_type@details@soci@@EEBA_KXZ
	?size@standard_use_type@details@soci@@EEBA_KXZ
	?skipMessageKeys@?$DR@UC255@lime@@@lime@@AEAAXGH@Z
	?skipMessageKeys@?$DR@UC448@lime@@@lime@@AEAAXGH@Z
	?ssize@?$DSA@UC255@lime@@$00@lime@@SA_KXZ
	?ssize@?$DSA@UC255@lime@@$01@lime@@SA_KXZ
	?ssize@?$DSA@UC255@lime@@$0A@@lime@@SA_KXZ
	?ssize@?$DSA@UC448@lime@@$00@lime@@SA_KXZ
	?ssize@?$DSA@UC448@lime@@$01@lime@@SA_KXZ
	?ssize@?$DSA@UC448@lime@@$0A@@lime@@SA_KXZ
	?ssize@?$X@UC255@lime@@$00@lime@@SA_KXZ
	?ssize@?$X@UC255@lime@@$01@lime@@SA_KXZ
	?ssize@?$X@UC255@lime@@$0A@@lime@@SA_KXZ
	?ssize@?$X@UC448@lime@@$00@lime@@SA_KXZ
	?ssize@?$X@UC448@lime@@$01@lime@@SA_KXZ
	?ssize@?$X@UC448@lime@@$0A@@lime@@SA_KXZ
	?stale_sessions@?$Lime@UC255@lime@@@lime@@UEAAXAEBV?$basic_string@DU?$char_traits@D@std@@V?$allocator@D@2@@std@@@Z
	?stale_sessions@?$Lime@UC448@lime@@@lime@@UEAAXAEBV?$basic_string@DU?$char_traits@D@std@@V?$allocator@D@2@@std@@@Z
	?stale_sessions@LimeManager@lime@@QEAAXAEBV?$basic_string@DU?$char_traits@D@std@@V?$allocator@D@2@@std@@0@Z
	?start_transaction@Db@lime@@QEAAXXZ
	?str@?$basic_ostringstream@DU?$char_traits@D@std@@V?$allocator@D@2@@std@@QEBA?AV?$basic_string@DU?$char_traits@D@std@@V?$allocator@D@2@@2@XZ
	?trySkippedMessageKeys@?$DR@UC255@lime@@@lime@@AEAA_NGAEBV?$X@UC255@lime@@$0A@@2@AEAU?$sBuffer@$0DA@@2@@Z
	?trySkippedMessageKeys@?$DR@UC448@lime@@@lime@@AEAA_NGAEBV?$X@UC448@lime@@$0A@@2@AEAU?$sBuffer@$0DA@@2@@Z
	?underflow@?$basic_stringbuf@DU?$char_traits@D@std@@V?$allocator@D@2@@std@@MEAAHXZ
	?update@LimeManager@lime@@QEAAXAEBV?$basic_string@DU?$char_traits@D@std@@V?$allocator@D@2@@std@@AEBV?$function@$$A6AXW4CallbackReturn@lime@@V?$basic_string@DU?$char_traits@D@std@@V?$allocator@D@2@@std@@@Z@4@@Z
	?update@LimeManager@lime@@QEAAXAEBV?$basic_string@DU?$char_traits@D@std@@V?$allocator@D@2@@std@@AEBV?$function@$$A6AXW4CallbackReturn@lime@@V?$basic_string@DU?$char_traits@D@std@@V?$allocator@D@2@@std@@@Z@4@GG@Z
	?update_OPk@?$Lime@UC255@lime@@@lime@@UEAAXAEBV?$function@$$A6AXW4CallbackReturn@lime@@V?$basic_string@DU?$char_traits@D@std@@V?$allocator@D@2@@std@@@Z@std@@GG@Z
	?update_OPk@?$Lime@UC448@lime@@@lime@@UEAAXAEBV?$function@$$A6AXW4CallbackReturn@lime@@V?$basic_string@DU?$char_traits@D@std@@V?$allocator@D@2@@std@@@Z@std@@GG@Z
	?update_SPk@?$Lime@UC255@lime@@@lime@@UEAAXAEBV?$function@$$A6AXW4CallbackReturn@lime@@V?$basic_string@DU?$char_traits@D@std@@V?$allocator@D@2@@std@@@Z@std@@@Z
	?update_SPk@?$Lime@UC448@lime@@@lime@@UEAAXAEBV?$function@$$A6AXW4CallbackReturn@lime@@V?$basic_string@DU?$char_traits@D@std@@V?$allocator@D@2@@std@@@Z@std@@@Z
	?valid@?$DRHeader@UC255@lime@@@double_ratchet_protocol@lime@@QEBA_NXZ
	?valid@?$DRHeader@UC448@lime@@@double_ratchet_protocol@lime@@QEBA_NXZ
	?verify@?$bctbx_EDDSA@UC255@lime@@@lime@@UEAA_NAEBV?$X@UC255@lime@@$0A@@2@AEBV?$DSA@UC255@lime@@$01@2@@Z
	?verify@?$bctbx_EDDSA@UC255@lime@@@lime@@UEAA_NAEBV?$vector@EV?$allocator@E@std@@@std@@AEBV?$DSA@UC255@lime@@$01@2@@Z
	?verify@?$bctbx_EDDSA@UC448@lime@@@lime@@UEAA_NAEBV?$X@UC448@lime@@$0A@@2@AEBV?$DSA@UC448@lime@@$01@2@@Z
	?verify@?$bctbx_EDDSA@UC448@lime@@@lime@@UEAA_NAEBV?$vector@EV?$allocator@E@std@@@std@@AEBV?$DSA@UC448@lime@@$01@2@@Z
	?what@bad_weak_ptr@std@@UEBAPEBDXZ
	?what@exception@std@@UEBAPEBDXZ
